; ModuleID = 'sensitive_api_project_ir_build_LywneN/03_linked_external.bc'
source_filename = "llvm-link"
target datalayout = "e-m:e-p270:32:32-p271:32:32-p272:64:64-i64:64-f80:128-n8:16:32:64-S128"
target triple = "x86_64-pc-linux-gnu"

%struct.StringStruct = type { [20 x i8], i8* }
%class.CryptoUtils = type { %"class.std::mersenne_twister_engine" }
%"class.std::mersenne_twister_engine" = type { [312 x i64], i64 }
%"class.std::uniform_int_distribution" = type { %"struct.std::uniform_int_distribution<unsigned long>::param_type" }
%"struct.std::uniform_int_distribution<unsigned long>::param_type" = type { i64, i64 }
%struct.gm_sm4_context = type { [32 x i32], [16 x i8], [16 x i8], i32, i32, i32 }
%"class.std::random_device" = type { %union.anon }
%union.anon = type { %"class.std::mersenne_twister_engine.0" }
%"class.std::mersenne_twister_engine.0" = type { [624 x i64], i64 }
%"class.std::__cxx11::basic_string" = type { %"struct.std::__cxx11::basic_string<char>::_Alloc_hider", i64, %union.anon.1 }
%"struct.std::__cxx11::basic_string<char>::_Alloc_hider" = type { i8* }
%union.anon.1 = type { i64, [8 x i8] }
%"class.std::allocator" = type { i8 }

$_ZNSt24uniform_int_distributionImEC2Ev = comdat any

$_ZNSt24uniform_int_distributionImEclISt23mersenne_twister_engineImLm64ELm312ELm156ELm31ELm13043109905998158313ELm29ELm6148914691236517205ELm17ELm8202884508482404352ELm37ELm18444473444759240704ELm43ELm6364136223846793005EEEEmRT_ = comdat any

$_ZNSt24uniform_int_distributionImEclISt23mersenne_twister_engineImLm64ELm312ELm156ELm31ELm13043109905998158313ELm29ELm6148914691236517205ELm17ELm8202884508482404352ELm37ELm18444473444759240704ELm43ELm6364136223846793005EEEEmRT_RKNS0_10param_typeE = comdat any

$_ZNKSt24uniform_int_distributionImE10param_type1bEv = comdat any

$_ZNKSt24uniform_int_distributionImE10param_type1aEv = comdat any

$_ZNSt24uniform_int_distributionImE5_S_ndIoSt23mersenne_twister_engineImLm64ELm312ELm156ELm31ELm13043109905998158313ELm29ELm6148914691236517205ELm17ELm8202884508482404352ELm37ELm18444473444759240704ELm43ELm6364136223846793005EEmEET1_RT0_S4_ = comdat any

$_ZNSt24uniform_int_distributionImE10param_typeC2Emm = comdat any

$_ZNSt23mersenne_twister_engineImLm64ELm312ELm156ELm31ELm13043109905998158313ELm29ELm6148914691236517205ELm17ELm8202884508482404352ELm37ELm18444473444759240704ELm43ELm6364136223846793005EEclEv = comdat any

$_ZNSt23mersenne_twister_engineImLm64ELm312ELm156ELm31ELm13043109905998158313ELm29ELm6148914691236517205ELm17ELm8202884508482404352ELm37ELm18444473444759240704ELm43ELm6364136223846793005EE11_M_gen_randEv = comdat any

$_ZNSt24uniform_int_distributionImEC2Emm = comdat any

$_ZN11CryptoUtilsC2Ev = comdat any

$_ZNSt13random_deviceC2Ev = comdat any

$_ZNSt13random_deviceclEv = comdat any

$_ZNSt23mersenne_twister_engineImLm64ELm312ELm156ELm31ELm13043109905998158313ELm29ELm6148914691236517205ELm17ELm8202884508482404352ELm37ELm18444473444759240704ELm43ELm6364136223846793005EEC2Em = comdat any

$_ZNSt13random_deviceD2Ev = comdat any

$__clang_call_terminate = comdat any

$_ZNSt23mersenne_twister_engineImLm64ELm312ELm156ELm31ELm13043109905998158313ELm29ELm6148914691236517205ELm17ELm8202884508482404352ELm37ELm18444473444759240704ELm43ELm6364136223846793005EE4seedEm = comdat any

$_ZNSt8__detail5__modImLm0ELm1ELm0EEET_S1_ = comdat any

$_ZNSt8__detail5__modImLm312ELm1ELm0EEET_S1_ = comdat any

$_ZNSt8__detail4_ModImLm312ELm1ELm0ELb1ELb1EE6__calcEm = comdat any

$_ZNSt8__detail4_ModImLm0ELm1ELm0ELb1ELb0EE6__calcEm = comdat any

@.str_tick = private global i8 5
@.str.1_tick = private global i8 5
@.str.2_tick = private global i8 5
@.str.3_tick = private global i8 5
@.str.4_tick = private global i8 5
@.str.5_tick = private global i8 5
@.str.6_tick = private global i8 5
@.str.7_tick = private global i8 5
@.str.8_tick = private global i8 5
@.str.9_tick = private global i8 5
@.str.10_tick = private global i8 5
@.str.1.11_tick = private global i8 5
@.str.2.12_tick = private global i8 5
@.str.3.13_tick = private global i8 5
@.str.4.14_tick = private global i8 5
@.str.5.15_tick = private global i8 5
@.str.6.16_tick = private global i8 5
@.str.7.17_tick = private global i8 5
@.str.8.18_tick = private global i8 5
@.str.19_tick = private global i8 5
@.str.1.20_tick = private global i8 5
@.str.2.21_tick = private global i8 5
@globalString_tick = global i8 5
@__const.execute_core_string_operations.localString_tick = private global i8 5
@.str.24_tick = private global i8 5
@.str.1.25_tick = private global i8 5
@.str.2.26_tick = private global i8 5
@.str.3.27_tick = private global i8 5
@.str.4.28_tick = private global i8 5
@.str.5.29_tick = private global i8 5
@.str.6.30_tick = private global i8 5
@.str.7.31_tick = private global i8 5
@.str.8.32_tick = private global i8 5
@.str.9.33_tick = private global i8 5
@.str.10.34_tick = private global i8 5
@.str.11_tick = private global i8 5
@.str.12_tick = private global i8 5
@.str.13_tick = private global i8 5
@.str.14_tick = private global i8 5
@.str.15_tick = private global i8 5
@.str.16_tick = private global i8 5
@.str.37_tick = private global i8 5
@.str.1.38_tick = private global i8 5
@.str.2.39_tick = private global i8 5
@.str.3.40_tick = private global i8 5
@.str.4.41_tick = private global i8 5
@.str.5.43_tick = private global i8 5
@.str.6.44_tick = private global i8 5
@.str.7.42_tick = private global i8 5
@.str.8.45_tick = private global i8 5
@.str_xyz = private unnamed_addr global [80 x i8] c"6\0A4\1B-\FD\E8\0F\8F\9B\BD\B2t\BB2J\A8\EE\D5$\BA\9C^3\A9N\843M\95\FEE\E4FQ\A1`v\07R\8BR\CE\1B|\03\AC1\1A\F9\BC\AE(]B\19x\19\15-r\08|f\10\9D\84@\02}}\09\FE\AE\E1\EA\E8\F2\14\DD", align 1
@.str_abc = private unnamed_addr global [68 x i8] c"RC1tANgyjtTf7vqRJpbeySLzJ7fD4wrLYi3oT9K2sr5nMk2jz1lVKXkjUoLMK2ow8fIR", align 1
@.str.1_xyz = private unnamed_addr global [64 x i8] c"\05\F6K\00\BF%\B9\E7\E4; \B4\FF\DB\22CS\D1\FF\10\BEI\83e\1C\8Bi\A4\F9\E3^\AA\15\0A^g\C6t\D1\1F\1E\9E<h+O\02\B9'k\C9y\D4\CF\F1\E05u\0CO\FAYR\EB", align 1
@.str.1_abc = private unnamed_addr global [49 x i8] c"cjIsABDbLvi8muTUh22ZgDBOvNarSG8SPEae6DdFWlC9FjRKb", align 1
@.str.2_xyz = private unnamed_addr global [80 x i8] c"QB\0F\D8\F1w\DB/\A4\81\85W\8Ah\CF\A1\D5\D7\F7_\8C\1C\D7X]\0Am\D7\C0\B3\BCy\98\02#\D6$\18\C5\81\FBT\D4`\83\1A^\E2w\85\C8\E4\C6\E1\9BJ\E4s\90i\E4\91Ae3\95\14N\8B5K\C4(?E\82\88\CF\81\FD", align 1
@.str.2_abc = private unnamed_addr global [64 x i8] c"JzhcZVxCTMjqL13d057t8Dgk3dNcSoesLjuA5Q3Msc211U5RP29OtdWkeznWLpen", align 1
@.str.3_xyz = private unnamed_addr global [96 x i8] c"\12\FDk\8F\B6\EF\DA\FA\04\18\06n>\C3\F09v\A7\C5\B4\B4\B4\84\0C\14\8CF\A4\9EL9\F6\A2\9Dc\E1\A9\97z\9A%\0C0B\C0D\9E\C1jV\E2\05[\13\82\C5\8E2*0\D6 \F7\10q\B0\C6\B7f\0E\00,d\91\BB\C6\8D\00\A7\8BP\18\AF\EB\AA\AA\9D#uh\CA\18v\D2\DE\D3", align 1
@.str.3_abc = private unnamed_addr global [90 x i8] c"yxNrdG4tGUlyEedk4cWmfIwj5J4HY8SnvvCw0wQufZQJ3URVUD7Y9u531ZyQYg1hzrEpOiIR7oqY66JRzFFxZAqOoO", align 1
@.str.4_xyz = private unnamed_addr global [64 x i8] c"\A2\899vVg6pE\05\B8\8E\0Ae-\90:\95\A5\D7\E5\E6e\A4\B6\B1{%\83hQ\E6T/\E0\D8\CB[\0E\103\8F\CE\CB \A4C\0Fw\9F\8A\95!\14\0Cg\B3\F1\03\D5\14\AE\BC!", align 1
@.str.4_abc = private unnamed_addr global [54 x i8] c"saShhhzJvbR3SMf6Ac28TqDmNqK14YDnYlu4qTDLSjCAVIxkKpirFJ", align 1
@.str.5_xyz = private unnamed_addr global [48 x i8] c"\D4\C4\8B\9F]\17\FE\22\E7\18\166\17\17E)7`\C5\9C\19\E2\86\EC\9B\EA\C0\10\81\06\DA2Dhu\E0x\EC\CB\F9\9C\81{\F3\8C\15g\18", align 1
@.str.5_abc = private unnamed_addr global [36 x i8] c"DgZd7R2A2OJlI02czLj2b4Aye8MkpfTSmGVj", align 1
@.str.6_xyz = private unnamed_addr global [48 x i8] c"2\B79\A1\9A H\7Ftm}\E0\E2\E9\F1\91\0F\A9\D4\13\D8\BAc\EF1\C7\F1\90\8BT\81\F5=\97\1DL\B7\17\D6\DBj\B3\99\E2h\95g\FD", align 1
@.str.6_abc = private unnamed_addr global [43 x i8] c"oLIeqfpW3iYtT7lS0Jf4FRfUWWC6tleFVKJ9PZVJ5K0", align 1
@.str.7_xyz = private unnamed_addr global [48 x i8] c"\B5_z\07]\DD\E2\B4S\E73C\9ENxsfI6\08o\A4g\D5\9E\9C8p 17Y;\BFVu\E7\B33\AF0|\09\C7\C4\AB\D7\B4", align 1
@.str.7_abc = private unnamed_addr global [43 x i8] c"MF9stIxobcrVXdlTuuXZfxzebm0IfyyR1x9l3vx4xMP", align 1
@.str.8_xyz = private unnamed_addr global [80 x i8] c"\B5_z\07]\DD\E2\B4S\E73C\9ENxs95RZ\CE8c/\08t\8E\BC\17\AE\EB\83\D66UZ9\A1\87\B8\0B?Q\80\DE\D4tq&\CC\E2\DB\EF;\D0i^r\FC;\B5\FF\0D@\10\F6\96RIh\F7\F1\10&\BC\D2_2D.", align 1
@.str.8_abc = private unnamed_addr global [66 x i8] c"kPY28iNXo9kqaugGzC4gureDiz0cWCP5fDVdJyZVv9ctsgZRHTW180sgnig7IT2LkL", align 1
@.str.9_xyz = private unnamed_addr global [48 x i8] c"\B5_z\07]\DD\E2\B4S\E73C\9ENxs\E0\04T\A5\0F\B58\BEl\84\1E \EC\F5\E0\F9'k\C9y\D4\CF\F1\E05u\0CO\FAYR\EB", align 1
@.str.9_abc = private unnamed_addr global [33 x i8] c"NU8CFtzFNRMCxjkj8g7qlkwph298DjJg3", align 1
@.str.10_xyz = private unnamed_addr global [80 x i8] c"\D7f\8D\A0yY\F8F\A2\14@\82KR\ED\89\\\95\0B\82\87PX\B4\16|\9B'\F4\19D\A3\1F\0C#\05\81x\C8\F3\CC(\F9\AF7u\F9O\A5(\C5\92\1E\10\DD\AE<\02\1BS\94\E0[\8D_\90@h\BFA\15\A6l\BF{V\908\CE\88", align 1
@.str.10_abc = private unnamed_addr global [71 x i8] c"HGxZ62CLC28LafHfcVqmfFu7EszM1DFx80m4TMDlCAVBFqGIcWUhredUwAwm1ZJZQTTxvlG", align 1
@.str.1.11_xyz = private unnamed_addr global [16 x i8] c"R\8E[\A9\CEA0Mi\12\0A\CDC\B5Vp", align 1
@.str.1.11_abc = private unnamed_addr global [8 x i8] c"VLpmgGSO", align 1
@.str.2.12_xyz = private unnamed_addr global [64 x i8] c"\E8\D9@\17Z\C4\03JQS\DD\16\DAb\D4>\EA7\E0l\E5\CE$\BF\EAi\A9\C4\EAmfo_\1D\C4\D9\97\B6\B6\00\0E\F7\E3\93\AA\C5\22\B4\1AX\12|\05\A5{YE\09\E7O\E9\ED\89_", align 1
@.str.2.12_abc = private unnamed_addr global [53 x i8] c"GCxLUBOCWcW84LFTpmBKFMfqluDpYj2uMp6uOIUAJGwDf1mtdL3Gl", align 1
@.str.3.13_xyz = private unnamed_addr global [80 x i8] c"\F6\C5\8A\C5\19\B8h\A1i}\B6\F0\84\B6\BA\CC\E7y4\DA\D8\A0\BDb\BDE'\C4\FF\DE-/\A9\B7\CD\AC\B9q\AE2\0E\C0\B8\8D\D6\86j\B5j\FA}\82\C3\0B \BA \F9\0E\15\CF\B9WS\C0i\83\EC\F3\22(\DF\BE\0D\C6\08YG\A9G", align 1
@.str.3.13_abc = private unnamed_addr global [72 x i8] c"6XwroMdxCw9RqrvWbUvHgYN6967IXEUUrg9FQa0gwYXKfhxh1SM7Fn3CjZa5tSNIZKdDK1K5", align 1
@.str.4.14_xyz = private unnamed_addr global [80 x i8] c"P\A6\9CujksB\DFN\84,:87r\00\B5\FB\BF\7F\97|\11@T\00\C2\9F;\87\D7\B5\FDh\FDS\C0r\E6@\94\B2\F1\8E\DF\F5~\14-\F5C]\F6P\1CO\88\11\C9\A90\1F\AF\80\F7c>cW%\A6\08\B7\ABGp\FAYO", align 1
@.str.4.14_abc = private unnamed_addr global [67 x i8] c"PvFVC20tJCpcQgEX5CSmltU83XzEP9zst4dTV3duuqwauYVqqECBVnxP8XhLUG4dy5X", align 1
@.str.5.15_xyz = private unnamed_addr global [80 x i8] c"\D7f\8D\A0yY\F8F\A2\14@\82KR\ED\89\1EQ\08\EB,\00N\F9*:\BB\F5\A6\1B\B16\11\F5M\C2<u\8F\C5\A5\0A\EAQ\04a\B1\0BV\F6XO\DD\E4'Pe\EE<g0\C6\DA\83'k\C9y\D4\CF\F1\E05u\0CO\FAYR\EB", align 1
@.str.5.15_abc = private unnamed_addr global [65 x i8] c"jXYBhcXfwL0K0sdpeoNTkA0UkuOmSH70uTrzVdEhMvSCNTSR5tyfTmZ1GBbn78brR", align 1
@.str.6.16_xyz = private unnamed_addr global [32 x i8] c"$@\D6\99\A7iFr{R8[3\08^\C1C>\1C\81\EC\10ty\B5\F5\CB\99\E0\BCb#", align 1
@.str.6.16_abc = private unnamed_addr global [31 x i8] c"qRAtjI4Eowg5cX0tk5cwT23k1eh0fxF", align 1
@.str.7.17_xyz = private unnamed_addr global [64 x i8] c"\C1aQ\02\8A\055\DD>\E3\DB\ADD\E4\D7\B0\EF\8AEhI+\97\EDv\B2+\BE/&\BE\9A\ED\9D\15\91`\\p\B9i\97\86\87\1FP\06\A1\14\17\DF\FD\D7\99\10\F73b\9F\CD1\08w\F9", align 1
@.str.7.17_abc = private unnamed_addr global [55 x i8] c"vc6NlCHOO1UJ4FznPsocbe3k57pTcKnxMhaWHFAjxiSpNfCrxOtxQmF", align 1
@.str.8.18_xyz = private unnamed_addr global [48 x i8] c"\F6\C5\8A\C5\19\B8h\A1i}\B6\F0\84\B6\BA\CC\8B\10\8E\DBE\A8\DD\99:3\E5\E4f\\\B8\C3\FA\AB\F6\0F,V+1mGn\98I\109\BC", align 1
@.str.8.18_abc = private unnamed_addr global [35 x i8] c"KjUrjvEE5JDRg8fpvn5KZ8bgwNzRuJm2Q6j", align 1
@.str.19_xyz = private unnamed_addr global [64 x i8] c"\AD28\D9\AE\9F\BF\AE\9Ez\16\AD\DB\F7\C2\96\9F[\D0\AA\FB\0Fl\A5\B5k\91\86HK\EAF\B7\84{g\C0E1h)\C1\B6O\D3\DD\FC\E6b>\93\B8\C7l9\10\C5\DC\\\BB\E3b\EB\FF", align 1
@.str.19_abc = private unnamed_addr global [54 x i8] c"ZpMrllU0qT6DchxN6vMaPpxwH6GxKBHxQhPZqxQGgK8hRtSMOuMsHa", align 1
@.str.1.20_xyz = private unnamed_addr global [64 x i8] c"\01}\B1\B6\BC\ABO\D2u\C5\E0w\85\82\B9r\F1\A4\DC\CB\F9vy\0B\B6\9CvI\EC\A1\AE\E1\90\EE1\19\BA\C9\91'\2254\9F\B6[\CFo'k\C9y\D4\CF\F1\E05u\0CO\FAYR\EB", align 1
@.str.1.20_abc = private unnamed_addr global [49 x i8] c"Od4lAFK52qcHet5UX9sTe9cWJRem9MkLNeUdJu9AJ95LsYtgW", align 1
@.str.2.21_xyz = private unnamed_addr global [48 x i8] c"\AD28\D9\AE\9F\BF\AE\9Ez\16\AD\DB\F7\C2\96U~\DB3\A3\B4\0D\17s\BE\89\FD\8E\14\AD>\22\0D\8F\06\E8s\0E\E3X\08\E1F\0D\9F\D8\16", align 1
@.str.2.21_abc = private unnamed_addr global [45 x i8] c"LZ0I2NiHRsErCd4GY6eg3EN2zoloHpagcYP2BXzhf1wH5", align 1
@globalString_xyz = dso_local global [32 x i8] c"\0A\004x\B7Zz\B5\E4\95\9FE\A15\804\D6\1Bm\8F\04\97R\\\B9\DE/\FB\80)!N", align 16
@globalString_abc = dso_local global [25 x i8] c"pbRlfVeHx65Lfjhuhnx50pvNN", align 16
@__const.execute_core_string_operations.localString_xyz = private unnamed_addr global [32 x i8] c"\C4\CC\BF\AAJ\9E`\B8\ED\C7m4s\85\D8\C0\1BFoI)\AF\C0H\07r\F9\A2[7\D9Q", align 16
@__const.execute_core_string_operations.localString_abc = private unnamed_addr global [24 x i8] c"AQEUlx9lckqWoWjjRSoYZJ5b", align 16
@.str.24_xyz = private unnamed_addr global [48 x i8] c"Px-\9E\CBWW\BEo\D5|\C4\B5\C4\E0M\FA\FFC\0D\FA\17\E1w\ABW\86!K\AF\F1U'k\C9y\D4\CF\F1\E05u\0CO\FAYR\EB", align 1
@.str.24_abc = private unnamed_addr global [33 x i8] c"4Y1jhDUFhpqtKpELASxMEGVlm89aH29BP", align 1
@.str.1.25_xyz = private unnamed_addr global [48 x i8] c"\FF\D7\CF2f?2\CD\EC\90e\A9\BB\10\EE\13!\AE\C6\BEUj\FD\81\0B\1Bo\1Fz\13\9E\85V\DA}\\~\8Fu#\E4\8BC\97?\22\12\CC", align 1
@.str.1.25_abc = private unnamed_addr global [39 x i8] c"0IWrtqzGGQeViPj0aWtEFCRDAR8sQx5E6QUn6jT", align 1
@.str.2.26_xyz = private unnamed_addr global [16 x i8] c"\CBW\B4\99'\A5\99\C5\CB\9B\89h$\93\C3`", align 1
@.str.2.26_abc = private unnamed_addr global [13 x i8] c"CXVn5BvTBfc4K", align 1
@.str.3.27_xyz = private unnamed_addr global [16 x i8] c"\9E3\D7\D5\8Am`\C6L\03\D8\C1\17\D8'_", align 1
@.str.3.27_abc = private unnamed_addr global [15 x i8] c"DLc3qaj6yfysViF", align 1
@.str.4.28_xyz = private unnamed_addr global [64 x i8] c"\FF\D7\CF2f?2\CD\EC\90e\A9\BB\10\EE\13\8D\98PA\1C\B4u\D7\DE\9Ei\00\AEK\B3l(\A9\E6Vz\AD\AB\A5BU\83!\D5\E0\AA\BB\FA\AB\F6\0F,V+1mGn\98I\109\BC", align 1
@.str.4.28_abc = private unnamed_addr global [51 x i8] c"Rpmhc7u5wNPWSPQtipvbFtlBRoX796COlMVmIdh4RWOzCuQKH9K", align 1
@.str.5.29_xyz = private unnamed_addr global [16 x i8] c"rb\9B\CC\F4\84b\B6\08\CA\E1\C9\C1\D9\AD\DA", align 1
@.str.5.29_abc = private unnamed_addr global [14 x i8] c"ctVB87p66jwIu9", align 1
@.str.6.30_xyz = private unnamed_addr global [48 x i8] c"\FD\C4\92\F3J\CE.\D2\1AY\1D>\D4O\A4\EE\F3\B6\C4\98\EDV\B1\BB\8Bv\82N\DC\9EH\C4\85\DE\D3\AA\F3r\01\EBiN3.\B7H\AD\D5", align 1
@.str.6.30_abc = private unnamed_addr global [34 x i8] c"tEHuMzbwezYwfx4d74uQwsNLmHSJfcGwFb", align 1
@.str.7.31_xyz = private unnamed_addr global [32 x i8] c"\8De\EE\F5E\AEp#\0F\86\B5\ADg\0A\0A\AB\BF,\AF\D7E\18\98\E1\93'\05\C0/\9B\0DL", align 1
@.str.7.31_abc = private unnamed_addr global [22 x i8] c"QhASDCfqXiNRlIJFo5WZE8", align 1
@.str.8.32_xyz = private unnamed_addr global [64 x i8] c"\BB\A0\B4\AA\AFO\E6\C07'4\\\1A\8F\A6+\17t\86\9C\AC\B6q\EC\8D#\16\0B\CD\D6\A5\0F\B8=Ur\D5rQ\CFA\B5\81\9C:W7\A5\92\FF\EEJ\B5\B6\0F\AE\98\F2\0D\22)\D7)\CD", align 1
@.str.8.32_abc = private unnamed_addr global [52 x i8] c"wmFBnbVScBXBho3mEQthvCN581YSQtOaDkzQjkwmMjLRyE20jl6E", align 1
@.str.9.33_xyz = private unnamed_addr global [32 x i8] c"\D3\F5W8\04_!\13O\99\BB\EF\8A\15hV3\95\14N\8B5K\C4(?E\82\88\CF\81\FD", align 1
@.str.9.33_abc = private unnamed_addr global [16 x i8] c"NJxJBmrfF6g8eFNn", align 1
@.str.10.34_xyz = private unnamed_addr global [48 x i8] c"\B5\C0;\91\BB\E1\CDnl\E4\FE;\1E/\07I\A4\07\19\CD\8FWs\\x8\AB(\C96\FB\8C-\F5\DD\B9\B9\10ks\96\A0\80\A6\99\C3\07\BC", align 1
@.str.10.34_abc = private unnamed_addr global [39 x i8] c"Q7xqh85DDXtK8peKXCjoMzrhtxdx1OKFM6VR4Oi", align 1
@.str.11_xyz = private unnamed_addr global [32 x i8] c"@|17\0B\C7\D9q\02\D3\07\D0\E4\0D\D2\CB\AC\11\89,p\C3\C1\C5B\8CT\8B\B26zz", align 1
@.str.11_abc = private unnamed_addr global [22 x i8] c"vCz5yN88AygOaF5fYrgliV", align 1
@.str.12_xyz = private unnamed_addr global [32 x i8] c"\C02\D0;\04\B3;\95\F7\C7!\CFx\045\CCS\1D\BF[\F8j\0A\E0\B2\DC\A3\E4\BAG\E2@", align 1
@.str.12_abc = private unnamed_addr global [21 x i8] c"TNvNwcIak1CHVZkTXKf3o", align 1
@.str.13_xyz = private unnamed_addr global [32 x i8] c"\D0a\CB\00\11\9DA\F9k\BA\D6^`;w\CA\F7\A2\053fF\C2\14\ADO\0Cf\B1-W,", align 1
@.str.13_abc = private unnamed_addr global [20 x i8] c"fyiikxotF7bgsOCskACc", align 1
@.str.14_xyz = private unnamed_addr global [32 x i8] c"\0C\CA7@\F1\B1\91\AA_\E4\18\AC\94\13\C1\0BS\1D\BF[\F8j\0A\E0\B2\DC\A3\E4\BAG\E2@", align 1
@.str.14_abc = private unnamed_addr global [21 x i8] c"18VQiCDTHv5KRdS0A6j34", align 1
@.str.15_xyz = private unnamed_addr global [32 x i8] c"[\93\14v\C9{L~bNK\7F\FD\AE\A4(_\8A]\FFh$\B4P\C7\DE\0A\97\0B,\E6]", align 1
@.str.15_abc = private unnamed_addr global [23 x i8] c"k9kZzD7039R1UxakYTRhOrX", align 1
@.str.16_xyz = private unnamed_addr global [48 x i8] c"\D4V\1B\8A\EE\C5\FC\96\22a#\80\A6\C2M\88\D0\CC\91\A7\CB\EA\B2r\EF\0EE\8Be\08\06{\E5\7FA\9D\B1\A5\F9~\D5\F8vJ*3\CD\0D", align 1
@.str.16_abc = private unnamed_addr global [43 x i8] c"Q7Ng2W8U774UxxRlrP2gxngI9XnfCD2gAFmqriamg54", align 1
@.str.37_xyz = private unnamed_addr global [80 x i8] c"\C1\9D\11*\1A-8\C0ED\D9\D6\E8\D6M\E2Dv\CE\BB\F9\CAbL\0B\F7&>\89\95\F5\ECq\EAdD\EE5r\FCi\DA\AFT\C2\F4\16\C6\A2\82-'\F8N\D5\E51\0E\C9\02\1C\F0\C0\A4:~r\A6?Y\C6\B4\DE\FD0\08\9A\88\BB\93", align 1
@.str.37_abc = private unnamed_addr global [73 x i8] c"BqKMFpEMKPQgMEuR4XJalekCwtCGzvBYK9Afm2PWHw3hYlZS8yQhD0JXjarGvSu5RS93KOOf8", align 1
@.str.1.38_xyz = private unnamed_addr global [16 x i8] c"2r\C8d\93$g\D4\09\D0\\\0D\86$\13#", align 1
@.str.1.38_abc = private unnamed_addr global [5 x i8] c"FnUQc", align 1
@.str.2.39_xyz = private unnamed_addr global [16 x i8] c"rV\EAaI\88\12\F6M\04\0A\AD\14\1CB\E9", align 1
@.str.2.39_abc = private unnamed_addr global [5 x i8] c"AMygT", align 1
@.str.3.40_xyz = private unnamed_addr global [80 x i8] c"\FF\04\84\FFEb\\\CA\CF@\C4+0\B2\ED\81_\111\B6\92\CA(\FD\0A\0C+\95<\A9\C5\A0LO\0B\E3\F0!\9F>\FDg\19\9F3p\8B\0E\CD?\A6\81k\CE\CDRX\8C5\B6\1F\A2\F2R\10\F6\96RIh\F7\F1\10&\BC\D2_2D.", align 1
@.str.3.40_abc = private unnamed_addr global [66 x i8] c"17rMgr4LMK5GqOFhmhTseoDW2FnE3tmTqDtvSl6sUZYaBrfOxZ4zdxl40yyTSIA89S", align 1
@.str.4.41_xyz = private unnamed_addr global [48 x i8] c"W\1A$\96\A9R\D3\FA,\F8=o\B3\95?\ED\F6G\FD\C1\898\0C\19+0w'\A3r\93\C3\86\1Ena\ED\D6\BBMgE\87Z\BF\C1[\AC", align 1
@.str.4.41_abc = private unnamed_addr global [35 x i8] c"rR3naNbYLCeReBE8YFv9zlyY3eurau7sb1D", align 1
@.str.5.43_xyz = private unnamed_addr global [64 x i8] c"\C6\05\FF\F5}g_\05\87\8C^\C4b\17&\F9Dv\CE\BB\F9\CAbL\0B\F7&>\89\95\F5\ECq\EAdD\EE5r\FCi\DA\AFT\C2\F4\16\C6\D0bv\A0\9DX\F2|\E98i,u\C3\BB\BA", align 1
@.str.5.43_abc = private unnamed_addr global [59 x i8] c"9CEWc70R9pl8dQragDy2uCmJDEHTEwmDWRpYMdDLsOHttZuxqQnKjxjK2Or", align 1
@.str.6.44_xyz = private unnamed_addr global [64 x i8] c"\FF\04\84\FFEb\\\CA\CF@\C4+0\B2\ED\81x&\D0q5!\F8\EFC\A7G2\B8\F8\F8\DCG\ADM^3\BE\DD\C9\B3<,\92\D8E1.3\95\14N\8B5K\C4(?E\82\88\CF\81\FD", align 1
@.str.6.44_abc = private unnamed_addr global [48 x i8] c"waDXXidJUgduxP1Q6Qar4REEY2MwSoNcpeZan2H57Inumd8i", align 1
@.str.7.42_xyz = private unnamed_addr global [64 x i8] c"\92\E7\AEb\E2\19{^t\13\B1\BA\DA\A5[\EF\09\D0b|\86\CB\C3U\05R\08\F19\EF\E4\FA\86\90\A0\F0\01*\95\9D\00l\16\1D0\B2\C7<\C8\B6\09\8C\EE\8E\0D\D2\0B\89\C6\A0M\88\19\E9", align 1
@.str.7.42_abc = private unnamed_addr global [61 x i8] c"R7AMO2eASOUA3xCgzqgKgLGdkRvwUuCCr0c3TgrBVb0OwqUVGYwNz0OHF83qq", align 1
@.str.8.45_xyz = private unnamed_addr global [64 x i8] c"\E5TS\B7S\D00H/\\ps%\97\E9\05w\9C\DD\E6h\B7\E0\\\02\8B\8Di\83;\AEK\A4Y\F6*\E8\A9\B5\B7awN\1E\D1\D8S\EB\D9\06+\AF#sWg3\9CA.\82\DD\D2\CB", align 1
@.str.8.45_abc = private unnamed_addr global [52 x i8] c"uQFkSw3WNtHOhj8x3R2PbDfZhMvdEJtYpW85i0RVhnxowvJobB3c", align 1
@_ZN4llvm24DisableABIBreakingChecksE = external global i32, align 4
@_ZN4llvm30VerifyDisableABIBreakingChecksE = weak hidden global i32* @_ZN4llvm24DisableABIBreakingChecksE, align 8
@GM_SM4_SBOX = dso_local global [256 x i8] c"\D6\90\E9\FE\CC\E1=\B7\16\B6\14\C2(\FB,\05+g\9Av*\BE\04\C3\AAD\13&I\86\06\99\9CBP\F4\91\EF\98z3T\0BC\ED\CF\ACb\E4\B3\1C\A9\C9\08\E8\95\80\DF\94\FAu\8F?\A6G\07\A7\FC\F3s\17\BA\83Y<\19\E6\85O\A8hk\81\B2qd\DA\8B\F8\EB\0FKpV\9D5\1E$\0E^cX\D1\A2%\22|;\01!x\87\D4\00FW\9F\D3'RL6\02\E7\A0\C4\C8\9E\EA\BF\8A\D2@\C78\B5\A3\F7\F2\CE\F9a\15\A1\E0\AE]\A4\9B4\1AU\AD\9320\F5\8C\B1\E3\1D\F6\E2.\82f\CA`\C0)#\AB\0DSNo\D5\DB7E\DE\FD\8E/\03\FFjrml[Q\8D\1B\AF\92\BB\DD\BC\7F\11\D9\\A\1F\10Z\D8\0A\C11\88\A5\CD{\BD-t\D0\12\B8\E5\B4\B0\89i\97J\0C\96w~e\B9\F1\09\C5n\C6\84\18\F0}\EC:\DCM y\EE_>\D7\CB9H", align 16
@GM_SM4_FK = dso_local global [4 x i32] [i32 -1548633402, i32 1453994832, i32 1736282519, i32 -1301273892], align 16
@GM_SM4_CK = dso_local global [32 x i32] [i32 462357, i32 472066609, i32 943670861, i32 1415275113, i32 1886879365, i32 -1936483679, i32 -1464879427, i32 -993275175, i32 -521670923, i32 -66909679, i32 404694573, i32 876298825, i32 1347903077, i32 1819507329, i32 -2003855715, i32 -1532251463, i32 -1060647211, i32 -589042959, i32 -117504499, i32 337322537, i32 808926789, i32 1280531041, i32 1752135293, i32 -2071227751, i32 -1599623499, i32 -1128019247, i32 -656414995, i32 -184876535, i32 269950501, i32 741554753, i32 1213159005, i32 1684763257], align 16
@key = dso_local global [16 x i8] c"k\8BEg2{#\C6d<\98if3Hs", align 16
@.str = private unnamed_addr constant [20 x i8] c"test result: fail1\0A\00", align 1
@__const.genRandomString.charset = private unnamed_addr constant [63 x i8] c"abcdefghijklmnopqrstuvwxyzABCDEFGHIJKLMNOPQRSTUVWXYZ0123456789\00", align 16
@.str.1 = private unnamed_addr constant [8 x i8] c"default\00", align 1

; Function Attrs: noinline nounwind optnone uwtable
define dso_local void @_obf_func_462a(i8* noundef %0) #0 {
  %2 = alloca i8*, align 8
  store i8* %0, i8** %2, align 8
  %3 = load i8*, i8** %2, align 8
  %4 = alloca [68 x i8], align 1
  %5 = alloca [68 x i8], align 1
  %6 = alloca [80 x i8], align 1
  %7 = getelementptr [68 x i8], [68 x i8]* %4, i32 0, i32 0
  %8 = getelementptr [68 x i8], [68 x i8]* %5, i32 0, i32 0
  %9 = getelementptr [80 x i8], [80 x i8]* %6, i32 0, i32 0
  %10 = load i8, i8* @.str_tick, align 1
  %11 = sub i8 %10, 1
  call void bitcast (void (i8*, i8*, i64, i8, i8*)* @assignLow8BitsToInt8 to void (i8*, i8*, i32, i32, i8*)*)(i8* getelementptr inbounds ([68 x i8], [68 x i8]* @.str_abc, i32 0, i32 0), i8* %7, i32 68, i32 1, i8* @.str_tick)
  call void bitcast (void (i8*, i8*, i64, i8, i8*)* @assignLow8BitsToInt8 to void (i8*, i8*, i32, i32, i8*)*)(i8* getelementptr inbounds ([68 x i8], [68 x i8]* @.str_abc, i32 0, i32 0), i8* %8, i32 68, i32 1, i8* @.str_tick)
  call void bitcast (void (i8*, i8*, i64, i8, i8*)* @assignLow8BitsToInt8 to void (i8*, i8*, i32, i32, i8*)*)(i8* getelementptr inbounds ([80 x i8], [80 x i8]* @.str_xyz, i32 0, i32 0), i8* %9, i32 80, i32 1, i8* @.str_tick)
  call void @genRandomString(i8* %8, i32 68)
  call void @Dec_sm4_ecb_cbc(i32 0, i32 1, i8* %7, i8* %9, i32 80, i8* @.str_tick)
  call void bitcast (void (i8*, i8*, i64, i8, i8*)* @assignLow8BitsToInt8 to void (i8*, i8*, i32, i32, i8*)*)(i8* getelementptr inbounds ([68 x i8], [68 x i8]* @.str_abc, i32 0, i32 0), i8* %7, i32 68, i32 0, i8* @.str_tick)
  store i8 %11, i8* @.str_tick, align 1
  %12 = call i32 (i8*, ...) @printf(i8* noundef getelementptr inbounds ([68 x i8], [68 x i8]* @.str_abc, i64 0, i64 0), i8* noundef %3)
  call void bitcast (void (i8*, i8*, i64, i8, i8*)* @assignLow8BitsToInt8 to void (i8*, i8*, i32, i32, i8*)*)(i8* getelementptr inbounds ([68 x i8], [68 x i8]* @.str_abc, i32 0, i32 0), i8* %8, i32 68, i32 0, i8* @.str_tick)
  %13 = load i8*, i8** %2, align 8
  %14 = alloca [49 x i8], align 1
  %15 = alloca [49 x i8], align 1
  %16 = alloca [64 x i8], align 1
  %17 = getelementptr [49 x i8], [49 x i8]* %14, i32 0, i32 0
  %18 = getelementptr [49 x i8], [49 x i8]* %15, i32 0, i32 0
  %19 = getelementptr [64 x i8], [64 x i8]* %16, i32 0, i32 0
  %20 = load i8, i8* @.str.1_tick, align 1
  %21 = sub i8 %20, 1
  call void bitcast (void (i8*, i8*, i64, i8, i8*)* @assignLow8BitsToInt8 to void (i8*, i8*, i32, i32, i8*)*)(i8* getelementptr inbounds ([49 x i8], [49 x i8]* @.str.1_abc, i32 0, i32 0), i8* %17, i32 49, i32 1, i8* @.str.1_tick)
  call void bitcast (void (i8*, i8*, i64, i8, i8*)* @assignLow8BitsToInt8 to void (i8*, i8*, i32, i32, i8*)*)(i8* getelementptr inbounds ([49 x i8], [49 x i8]* @.str.1_abc, i32 0, i32 0), i8* %18, i32 49, i32 1, i8* @.str.1_tick)
  call void bitcast (void (i8*, i8*, i64, i8, i8*)* @assignLow8BitsToInt8 to void (i8*, i8*, i32, i32, i8*)*)(i8* getelementptr inbounds ([64 x i8], [64 x i8]* @.str.1_xyz, i32 0, i32 0), i8* %19, i32 64, i32 1, i8* @.str.1_tick)
  call void @genRandomString(i8* %18, i32 49)
  call void @Dec_sm4_ecb_cbc(i32 0, i32 1, i8* %17, i8* %19, i32 64, i8* @.str.1_tick)
  call void bitcast (void (i8*, i8*, i64, i8, i8*)* @assignLow8BitsToInt8 to void (i8*, i8*, i32, i32, i8*)*)(i8* getelementptr inbounds ([49 x i8], [49 x i8]* @.str.1_abc, i32 0, i32 0), i8* %17, i32 49, i32 0, i8* @.str.1_tick)
  store i8 %21, i8* @.str.1_tick, align 1
  %22 = call i32 (i8*, ...) @printf(i8* noundef getelementptr inbounds ([49 x i8], [49 x i8]* @.str.1_abc, i64 0, i64 0), i8* noundef %13)
  call void bitcast (void (i8*, i8*, i64, i8, i8*)* @assignLow8BitsToInt8 to void (i8*, i8*, i32, i32, i8*)*)(i8* getelementptr inbounds ([49 x i8], [49 x i8]* @.str.1_abc, i32 0, i32 0), i8* %18, i32 49, i32 0, i8* @.str.1_tick)
  ret void
}

declare i32 @printf(i8* noundef, ...) #1

; Function Attrs: noinline nounwind optnone uwtable
define dso_local i32 @_obf_func_Hnd9(i8* noundef %0) #0 {
  %2 = alloca i8*, align 8
  store i8* %0, i8** %2, align 8
  %3 = load i8*, i8** %2, align 8
  %4 = alloca [64 x i8], align 1
  %5 = alloca [64 x i8], align 1
  %6 = alloca [80 x i8], align 1
  %7 = getelementptr [64 x i8], [64 x i8]* %4, i32 0, i32 0
  %8 = getelementptr [64 x i8], [64 x i8]* %5, i32 0, i32 0
  %9 = getelementptr [80 x i8], [80 x i8]* %6, i32 0, i32 0
  %10 = load i8, i8* @.str.2_tick, align 1
  %11 = sub i8 %10, 1
  call void bitcast (void (i8*, i8*, i64, i8, i8*)* @assignLow8BitsToInt8 to void (i8*, i8*, i32, i32, i8*)*)(i8* getelementptr inbounds ([64 x i8], [64 x i8]* @.str.2_abc, i32 0, i32 0), i8* %7, i32 64, i32 1, i8* @.str.2_tick)
  call void bitcast (void (i8*, i8*, i64, i8, i8*)* @assignLow8BitsToInt8 to void (i8*, i8*, i32, i32, i8*)*)(i8* getelementptr inbounds ([64 x i8], [64 x i8]* @.str.2_abc, i32 0, i32 0), i8* %8, i32 64, i32 1, i8* @.str.2_tick)
  call void bitcast (void (i8*, i8*, i64, i8, i8*)* @assignLow8BitsToInt8 to void (i8*, i8*, i32, i32, i8*)*)(i8* getelementptr inbounds ([80 x i8], [80 x i8]* @.str.2_xyz, i32 0, i32 0), i8* %9, i32 80, i32 1, i8* @.str.2_tick)
  call void @genRandomString(i8* %8, i32 64)
  call void @Dec_sm4_ecb_cbc(i32 0, i32 1, i8* %7, i8* %9, i32 80, i8* @.str.2_tick)
  call void bitcast (void (i8*, i8*, i64, i8, i8*)* @assignLow8BitsToInt8 to void (i8*, i8*, i32, i32, i8*)*)(i8* getelementptr inbounds ([64 x i8], [64 x i8]* @.str.2_abc, i32 0, i32 0), i8* %7, i32 64, i32 0, i8* @.str.2_tick)
  store i8 %11, i8* @.str.2_tick, align 1
  %12 = call i32 (i8*, ...) @printf(i8* noundef getelementptr inbounds ([64 x i8], [64 x i8]* @.str.2_abc, i64 0, i64 0), i8* noundef %3)
  call void bitcast (void (i8*, i8*, i64, i8, i8*)* @assignLow8BitsToInt8 to void (i8*, i8*, i32, i32, i8*)*)(i8* getelementptr inbounds ([64 x i8], [64 x i8]* @.str.2_abc, i32 0, i32 0), i8* %8, i32 64, i32 0, i8* @.str.2_tick)
  %13 = load i8*, i8** %2, align 8
  %14 = alloca [90 x i8], align 1
  %15 = alloca [90 x i8], align 1
  %16 = alloca [96 x i8], align 1
  %17 = getelementptr [90 x i8], [90 x i8]* %14, i32 0, i32 0
  %18 = getelementptr [90 x i8], [90 x i8]* %15, i32 0, i32 0
  %19 = getelementptr [96 x i8], [96 x i8]* %16, i32 0, i32 0
  %20 = load i8, i8* @.str.3_tick, align 1
  %21 = sub i8 %20, 1
  call void bitcast (void (i8*, i8*, i64, i8, i8*)* @assignLow8BitsToInt8 to void (i8*, i8*, i32, i32, i8*)*)(i8* getelementptr inbounds ([90 x i8], [90 x i8]* @.str.3_abc, i32 0, i32 0), i8* %17, i32 90, i32 1, i8* @.str.3_tick)
  call void bitcast (void (i8*, i8*, i64, i8, i8*)* @assignLow8BitsToInt8 to void (i8*, i8*, i32, i32, i8*)*)(i8* getelementptr inbounds ([90 x i8], [90 x i8]* @.str.3_abc, i32 0, i32 0), i8* %18, i32 90, i32 1, i8* @.str.3_tick)
  call void bitcast (void (i8*, i8*, i64, i8, i8*)* @assignLow8BitsToInt8 to void (i8*, i8*, i32, i32, i8*)*)(i8* getelementptr inbounds ([96 x i8], [96 x i8]* @.str.3_xyz, i32 0, i32 0), i8* %19, i32 96, i32 1, i8* @.str.3_tick)
  call void @genRandomString(i8* %18, i32 90)
  call void @Dec_sm4_ecb_cbc(i32 0, i32 1, i8* %17, i8* %19, i32 96, i8* @.str.3_tick)
  call void bitcast (void (i8*, i8*, i64, i8, i8*)* @assignLow8BitsToInt8 to void (i8*, i8*, i32, i32, i8*)*)(i8* getelementptr inbounds ([90 x i8], [90 x i8]* @.str.3_abc, i32 0, i32 0), i8* %17, i32 90, i32 0, i8* @.str.3_tick)
  store i8 %21, i8* @.str.3_tick, align 1
  %22 = call i32 (i8*, ...) @printf(i8* noundef getelementptr inbounds ([90 x i8], [90 x i8]* @.str.3_abc, i64 0, i64 0), i8* noundef %13)
  call void bitcast (void (i8*, i8*, i64, i8, i8*)* @assignLow8BitsToInt8 to void (i8*, i8*, i32, i32, i8*)*)(i8* getelementptr inbounds ([90 x i8], [90 x i8]* @.str.3_abc, i32 0, i32 0), i8* %18, i32 90, i32 0, i8* @.str.3_tick)
  ret i32 0
}

; Function Attrs: noinline nounwind optnone uwtable
define dso_local void @_obf_func_WvX9(i8* noundef %0, i32 noundef %1) #0 {
  %3 = alloca i8*, align 8
  %4 = alloca i32, align 4
  %5 = alloca i8*, align 8
  store i8* %0, i8** %3, align 8
  store i32 %1, i32* %4, align 4
  %6 = alloca [54 x i8], align 1
  %7 = alloca [54 x i8], align 1
  %8 = alloca [64 x i8], align 1
  %9 = getelementptr [54 x i8], [54 x i8]* %6, i32 0, i32 0
  %10 = getelementptr [54 x i8], [54 x i8]* %7, i32 0, i32 0
  %11 = getelementptr [64 x i8], [64 x i8]* %8, i32 0, i32 0
  %12 = load i8, i8* @.str.4_tick, align 1
  %13 = sub i8 %12, 1
  call void bitcast (void (i8*, i8*, i64, i8, i8*)* @assignLow8BitsToInt8 to void (i8*, i8*, i32, i32, i8*)*)(i8* getelementptr inbounds ([54 x i8], [54 x i8]* @.str.4_abc, i32 0, i32 0), i8* %9, i32 54, i32 1, i8* @.str.4_tick)
  call void bitcast (void (i8*, i8*, i64, i8, i8*)* @assignLow8BitsToInt8 to void (i8*, i8*, i32, i32, i8*)*)(i8* getelementptr inbounds ([54 x i8], [54 x i8]* @.str.4_abc, i32 0, i32 0), i8* %10, i32 54, i32 1, i8* @.str.4_tick)
  call void bitcast (void (i8*, i8*, i64, i8, i8*)* @assignLow8BitsToInt8 to void (i8*, i8*, i32, i32, i8*)*)(i8* getelementptr inbounds ([64 x i8], [64 x i8]* @.str.4_xyz, i32 0, i32 0), i8* %11, i32 64, i32 1, i8* @.str.4_tick)
  call void @genRandomString(i8* %10, i32 54)
  call void @Dec_sm4_ecb_cbc(i32 0, i32 1, i8* %9, i8* %11, i32 64, i8* @.str.4_tick)
  call void bitcast (void (i8*, i8*, i64, i8, i8*)* @assignLow8BitsToInt8 to void (i8*, i8*, i32, i32, i8*)*)(i8* getelementptr inbounds ([54 x i8], [54 x i8]* @.str.4_abc, i32 0, i32 0), i8* %9, i32 54, i32 0, i8* @.str.4_tick)
  store i8 %13, i8* @.str.4_tick, align 1
  %14 = call i32 (i8*, ...) @printf(i8* noundef getelementptr inbounds ([54 x i8], [54 x i8]* @.str.4_abc, i64 0, i64 0))
  call void bitcast (void (i8*, i8*, i64, i8, i8*)* @assignLow8BitsToInt8 to void (i8*, i8*, i32, i32, i8*)*)(i8* getelementptr inbounds ([54 x i8], [54 x i8]* @.str.4_abc, i32 0, i32 0), i8* %10, i32 54, i32 0, i8* @.str.4_tick)
  %15 = load i8*, i8** %3, align 8
  %16 = icmp ne i8* %15, null
  br i1 %16, label %17, label %50

17:                                               ; preds = %2
  %18 = load i32, i32* %4, align 4
  %19 = icmp sgt i32 %18, 0
  br i1 %19, label %20, label %50

20:                                               ; preds = %17
  %21 = alloca [36 x i8], align 1
  %22 = alloca [36 x i8], align 1
  %23 = alloca [48 x i8], align 1
  %24 = getelementptr [36 x i8], [36 x i8]* %21, i32 0, i32 0
  %25 = getelementptr [36 x i8], [36 x i8]* %22, i32 0, i32 0
  %26 = getelementptr [48 x i8], [48 x i8]* %23, i32 0, i32 0
  %27 = load i8, i8* @.str.5_tick, align 1
  %28 = sub i8 %27, 1
  call void bitcast (void (i8*, i8*, i64, i8, i8*)* @assignLow8BitsToInt8 to void (i8*, i8*, i32, i32, i8*)*)(i8* getelementptr inbounds ([36 x i8], [36 x i8]* @.str.5_abc, i32 0, i32 0), i8* %24, i32 36, i32 1, i8* @.str.5_tick)
  call void bitcast (void (i8*, i8*, i64, i8, i8*)* @assignLow8BitsToInt8 to void (i8*, i8*, i32, i32, i8*)*)(i8* getelementptr inbounds ([36 x i8], [36 x i8]* @.str.5_abc, i32 0, i32 0), i8* %25, i32 36, i32 1, i8* @.str.5_tick)
  call void bitcast (void (i8*, i8*, i64, i8, i8*)* @assignLow8BitsToInt8 to void (i8*, i8*, i32, i32, i8*)*)(i8* getelementptr inbounds ([48 x i8], [48 x i8]* @.str.5_xyz, i32 0, i32 0), i8* %26, i32 48, i32 1, i8* @.str.5_tick)
  call void @genRandomString(i8* %25, i32 36)
  call void @Dec_sm4_ecb_cbc(i32 0, i32 1, i8* %24, i8* %26, i32 48, i8* @.str.5_tick)
  call void bitcast (void (i8*, i8*, i64, i8, i8*)* @assignLow8BitsToInt8 to void (i8*, i8*, i32, i32, i8*)*)(i8* getelementptr inbounds ([36 x i8], [36 x i8]* @.str.5_abc, i32 0, i32 0), i8* %24, i32 36, i32 0, i8* @.str.5_tick)
  store i8 %28, i8* @.str.5_tick, align 1
  store i8* getelementptr inbounds ([36 x i8], [36 x i8]* @.str.5_abc, i64 0, i64 0), i8** %5, align 8
  call void bitcast (void (i8*, i8*, i64, i8, i8*)* @assignLow8BitsToInt8 to void (i8*, i8*, i32, i32, i8*)*)(i8* getelementptr inbounds ([36 x i8], [36 x i8]* @.str.5_abc, i32 0, i32 0), i8* %25, i32 36, i32 0, i8* @.str.5_tick)
  %29 = load i8*, i8** %3, align 8
  %30 = load i8*, i8** %5, align 8
  %31 = load i32, i32* %4, align 4
  %32 = sub nsw i32 %31, 1
  %33 = sext i32 %32 to i64
  %34 = call i8* @strncpy(i8* noundef %29, i8* noundef %30, i64 noundef %33) #10
  %35 = load i8*, i8** %3, align 8
  %36 = load i32, i32* %4, align 4
  %37 = sub nsw i32 %36, 1
  %38 = sext i32 %37 to i64
  %39 = getelementptr inbounds i8, i8* %35, i64 %38
  store i8 0, i8* %39, align 1
  %40 = load i8*, i8** %3, align 8
  %41 = alloca [43 x i8], align 1
  %42 = alloca [43 x i8], align 1
  %43 = alloca [48 x i8], align 1
  %44 = getelementptr [43 x i8], [43 x i8]* %41, i32 0, i32 0
  %45 = getelementptr [43 x i8], [43 x i8]* %42, i32 0, i32 0
  %46 = getelementptr [48 x i8], [48 x i8]* %43, i32 0, i32 0
  %47 = load i8, i8* @.str.6_tick, align 1
  %48 = sub i8 %47, 1
  call void bitcast (void (i8*, i8*, i64, i8, i8*)* @assignLow8BitsToInt8 to void (i8*, i8*, i32, i32, i8*)*)(i8* getelementptr inbounds ([43 x i8], [43 x i8]* @.str.6_abc, i32 0, i32 0), i8* %44, i32 43, i32 1, i8* @.str.6_tick)
  call void bitcast (void (i8*, i8*, i64, i8, i8*)* @assignLow8BitsToInt8 to void (i8*, i8*, i32, i32, i8*)*)(i8* getelementptr inbounds ([43 x i8], [43 x i8]* @.str.6_abc, i32 0, i32 0), i8* %45, i32 43, i32 1, i8* @.str.6_tick)
  call void bitcast (void (i8*, i8*, i64, i8, i8*)* @assignLow8BitsToInt8 to void (i8*, i8*, i32, i32, i8*)*)(i8* getelementptr inbounds ([48 x i8], [48 x i8]* @.str.6_xyz, i32 0, i32 0), i8* %46, i32 48, i32 1, i8* @.str.6_tick)
  call void @genRandomString(i8* %45, i32 43)
  call void @Dec_sm4_ecb_cbc(i32 0, i32 1, i8* %44, i8* %46, i32 48, i8* @.str.6_tick)
  call void bitcast (void (i8*, i8*, i64, i8, i8*)* @assignLow8BitsToInt8 to void (i8*, i8*, i32, i32, i8*)*)(i8* getelementptr inbounds ([43 x i8], [43 x i8]* @.str.6_abc, i32 0, i32 0), i8* %44, i32 43, i32 0, i8* @.str.6_tick)
  store i8 %48, i8* @.str.6_tick, align 1
  %49 = call i32 (i8*, ...) @printf(i8* noundef getelementptr inbounds ([43 x i8], [43 x i8]* @.str.6_abc, i64 0, i64 0), i8* noundef %40)
  call void bitcast (void (i8*, i8*, i64, i8, i8*)* @assignLow8BitsToInt8 to void (i8*, i8*, i32, i32, i8*)*)(i8* getelementptr inbounds ([43 x i8], [43 x i8]* @.str.6_abc, i32 0, i32 0), i8* %45, i32 43, i32 0, i8* @.str.6_tick)
  br label %50

50:                                               ; preds = %20, %17, %2
  ret void
}

; Function Attrs: nounwind
declare i8* @strncpy(i8* noundef, i8* noundef, i64 noundef) #2

; Function Attrs: noinline nounwind optnone uwtable
define dso_local void @_obf_func_hT2o(i8* noundef %0) #0 {
  %2 = alloca i8*, align 8
  %3 = alloca i32, align 4
  store i8* %0, i8** %2, align 8
  %4 = load i8*, i8** %2, align 8
  %5 = alloca [43 x i8], align 1
  %6 = alloca [43 x i8], align 1
  %7 = alloca [48 x i8], align 1
  %8 = getelementptr [43 x i8], [43 x i8]* %5, i32 0, i32 0
  %9 = getelementptr [43 x i8], [43 x i8]* %6, i32 0, i32 0
  %10 = getelementptr [48 x i8], [48 x i8]* %7, i32 0, i32 0
  %11 = load i8, i8* @.str.7_tick, align 1
  %12 = sub i8 %11, 1
  call void bitcast (void (i8*, i8*, i64, i8, i8*)* @assignLow8BitsToInt8 to void (i8*, i8*, i32, i32, i8*)*)(i8* getelementptr inbounds ([43 x i8], [43 x i8]* @.str.7_abc, i32 0, i32 0), i8* %8, i32 43, i32 1, i8* @.str.7_tick)
  call void bitcast (void (i8*, i8*, i64, i8, i8*)* @assignLow8BitsToInt8 to void (i8*, i8*, i32, i32, i8*)*)(i8* getelementptr inbounds ([43 x i8], [43 x i8]* @.str.7_abc, i32 0, i32 0), i8* %9, i32 43, i32 1, i8* @.str.7_tick)
  call void bitcast (void (i8*, i8*, i64, i8, i8*)* @assignLow8BitsToInt8 to void (i8*, i8*, i32, i32, i8*)*)(i8* getelementptr inbounds ([48 x i8], [48 x i8]* @.str.7_xyz, i32 0, i32 0), i8* %10, i32 48, i32 1, i8* @.str.7_tick)
  call void @genRandomString(i8* %9, i32 43)
  call void @Dec_sm4_ecb_cbc(i32 0, i32 1, i8* %8, i8* %10, i32 48, i8* @.str.7_tick)
  call void bitcast (void (i8*, i8*, i64, i8, i8*)* @assignLow8BitsToInt8 to void (i8*, i8*, i32, i32, i8*)*)(i8* getelementptr inbounds ([43 x i8], [43 x i8]* @.str.7_abc, i32 0, i32 0), i8* %8, i32 43, i32 0, i8* @.str.7_tick)
  store i8 %12, i8* @.str.7_tick, align 1
  %13 = call i32 (i8*, ...) @printf(i8* noundef getelementptr inbounds ([43 x i8], [43 x i8]* @.str.7_abc, i64 0, i64 0), i8* noundef %4)
  call void bitcast (void (i8*, i8*, i64, i8, i8*)* @assignLow8BitsToInt8 to void (i8*, i8*, i32, i32, i8*)*)(i8* getelementptr inbounds ([43 x i8], [43 x i8]* @.str.7_abc, i32 0, i32 0), i8* %9, i32 43, i32 0, i8* @.str.7_tick)
  store i32 0, i32* %3, align 4
  br label %14

14:                                               ; preds = %32, %1
  %15 = load i32, i32* %3, align 4
  %16 = icmp slt i32 %15, 3
  br i1 %16, label %17, label %35

17:                                               ; preds = %14
  %18 = load i32, i32* %3, align 4
  %19 = add nsw i32 %18, 1
  %20 = load i32, i32* %3, align 4
  %21 = load i32, i32* %3, align 4
  %22 = mul nsw i32 %21, 100
  %23 = alloca [66 x i8], align 1
  %24 = alloca [66 x i8], align 1
  %25 = alloca [80 x i8], align 1
  %26 = getelementptr [66 x i8], [66 x i8]* %23, i32 0, i32 0
  %27 = getelementptr [66 x i8], [66 x i8]* %24, i32 0, i32 0
  %28 = getelementptr [80 x i8], [80 x i8]* %25, i32 0, i32 0
  %29 = load i8, i8* @.str.8_tick, align 1
  %30 = sub i8 %29, 1
  call void bitcast (void (i8*, i8*, i64, i8, i8*)* @assignLow8BitsToInt8 to void (i8*, i8*, i32, i32, i8*)*)(i8* getelementptr inbounds ([66 x i8], [66 x i8]* @.str.8_abc, i32 0, i32 0), i8* %26, i32 66, i32 1, i8* @.str.8_tick)
  call void bitcast (void (i8*, i8*, i64, i8, i8*)* @assignLow8BitsToInt8 to void (i8*, i8*, i32, i32, i8*)*)(i8* getelementptr inbounds ([66 x i8], [66 x i8]* @.str.8_abc, i32 0, i32 0), i8* %27, i32 66, i32 1, i8* @.str.8_tick)
  call void bitcast (void (i8*, i8*, i64, i8, i8*)* @assignLow8BitsToInt8 to void (i8*, i8*, i32, i32, i8*)*)(i8* getelementptr inbounds ([80 x i8], [80 x i8]* @.str.8_xyz, i32 0, i32 0), i8* %28, i32 80, i32 1, i8* @.str.8_tick)
  call void @genRandomString(i8* %27, i32 66)
  call void @Dec_sm4_ecb_cbc(i32 0, i32 1, i8* %26, i8* %28, i32 80, i8* @.str.8_tick)
  call void bitcast (void (i8*, i8*, i64, i8, i8*)* @assignLow8BitsToInt8 to void (i8*, i8*, i32, i32, i8*)*)(i8* getelementptr inbounds ([66 x i8], [66 x i8]* @.str.8_abc, i32 0, i32 0), i8* %26, i32 66, i32 0, i8* @.str.8_tick)
  store i8 %30, i8* @.str.8_tick, align 1
  %31 = call i32 (i8*, ...) @printf(i8* noundef getelementptr inbounds ([66 x i8], [66 x i8]* @.str.8_abc, i64 0, i64 0), i32 noundef %19, i32 noundef %20, i32 noundef %22)
  call void bitcast (void (i8*, i8*, i64, i8, i8*)* @assignLow8BitsToInt8 to void (i8*, i8*, i32, i32, i8*)*)(i8* getelementptr inbounds ([66 x i8], [66 x i8]* @.str.8_abc, i32 0, i32 0), i8* %27, i32 66, i32 0, i8* @.str.8_tick)
  br label %32

32:                                               ; preds = %17
  %33 = load i32, i32* %3, align 4
  %34 = add nsw i32 %33, 1
  store i32 %34, i32* %3, align 4
  br label %14, !llvm.loop !6

35:                                               ; preds = %14
  %36 = alloca [33 x i8], align 1
  %37 = alloca [33 x i8], align 1
  %38 = alloca [48 x i8], align 1
  %39 = getelementptr [33 x i8], [33 x i8]* %36, i32 0, i32 0
  %40 = getelementptr [33 x i8], [33 x i8]* %37, i32 0, i32 0
  %41 = getelementptr [48 x i8], [48 x i8]* %38, i32 0, i32 0
  %42 = load i8, i8* @.str.9_tick, align 1
  %43 = sub i8 %42, 1
  call void bitcast (void (i8*, i8*, i64, i8, i8*)* @assignLow8BitsToInt8 to void (i8*, i8*, i32, i32, i8*)*)(i8* getelementptr inbounds ([33 x i8], [33 x i8]* @.str.9_abc, i32 0, i32 0), i8* %39, i32 33, i32 1, i8* @.str.9_tick)
  call void bitcast (void (i8*, i8*, i64, i8, i8*)* @assignLow8BitsToInt8 to void (i8*, i8*, i32, i32, i8*)*)(i8* getelementptr inbounds ([33 x i8], [33 x i8]* @.str.9_abc, i32 0, i32 0), i8* %40, i32 33, i32 1, i8* @.str.9_tick)
  call void bitcast (void (i8*, i8*, i64, i8, i8*)* @assignLow8BitsToInt8 to void (i8*, i8*, i32, i32, i8*)*)(i8* getelementptr inbounds ([48 x i8], [48 x i8]* @.str.9_xyz, i32 0, i32 0), i8* %41, i32 48, i32 1, i8* @.str.9_tick)
  call void @genRandomString(i8* %40, i32 33)
  call void @Dec_sm4_ecb_cbc(i32 0, i32 1, i8* %39, i8* %41, i32 48, i8* @.str.9_tick)
  call void bitcast (void (i8*, i8*, i64, i8, i8*)* @assignLow8BitsToInt8 to void (i8*, i8*, i32, i32, i8*)*)(i8* getelementptr inbounds ([33 x i8], [33 x i8]* @.str.9_abc, i32 0, i32 0), i8* %39, i32 33, i32 0, i8* @.str.9_tick)
  store i8 %43, i8* @.str.9_tick, align 1
  %44 = call i32 (i8*, ...) @printf(i8* noundef getelementptr inbounds ([33 x i8], [33 x i8]* @.str.9_abc, i64 0, i64 0))
  call void bitcast (void (i8*, i8*, i64, i8, i8*)* @assignLow8BitsToInt8 to void (i8*, i8*, i32, i32, i8*)*)(i8* getelementptr inbounds ([33 x i8], [33 x i8]* @.str.9_abc, i32 0, i32 0), i8* %40, i32 33, i32 0, i8* @.str.9_tick)
  ret void
}

; Function Attrs: noinline nounwind optnone uwtable
define dso_local void @_obf_func_HH9M(i8* noundef %0, i32 noundef %1) #0 {
  %3 = alloca i8*, align 8
  %4 = alloca i32, align 4
  %5 = alloca i32, align 4
  store i8* %0, i8** %3, align 8
  store i32 %1, i32* %4, align 4
  %6 = load i8*, i8** %3, align 8
  %7 = load i32, i32* %4, align 4
  %8 = alloca [71 x i8], align 1
  %9 = alloca [71 x i8], align 1
  %10 = alloca [80 x i8], align 1
  %11 = getelementptr [71 x i8], [71 x i8]* %8, i32 0, i32 0
  %12 = getelementptr [71 x i8], [71 x i8]* %9, i32 0, i32 0
  %13 = getelementptr [80 x i8], [80 x i8]* %10, i32 0, i32 0
  %14 = load i8, i8* @.str.10_tick, align 1
  %15 = sub i8 %14, 1
  call void bitcast (void (i8*, i8*, i64, i8, i8*)* @assignLow8BitsToInt8 to void (i8*, i8*, i32, i32, i8*)*)(i8* getelementptr inbounds ([71 x i8], [71 x i8]* @.str.10_abc, i32 0, i32 0), i8* %11, i32 71, i32 1, i8* @.str.10_tick)
  call void bitcast (void (i8*, i8*, i64, i8, i8*)* @assignLow8BitsToInt8 to void (i8*, i8*, i32, i32, i8*)*)(i8* getelementptr inbounds ([71 x i8], [71 x i8]* @.str.10_abc, i32 0, i32 0), i8* %12, i32 71, i32 1, i8* @.str.10_tick)
  call void bitcast (void (i8*, i8*, i64, i8, i8*)* @assignLow8BitsToInt8 to void (i8*, i8*, i32, i32, i8*)*)(i8* getelementptr inbounds ([80 x i8], [80 x i8]* @.str.10_xyz, i32 0, i32 0), i8* %13, i32 80, i32 1, i8* @.str.10_tick)
  call void @genRandomString(i8* %12, i32 71)
  call void @Dec_sm4_ecb_cbc(i32 0, i32 1, i8* %11, i8* %13, i32 80, i8* @.str.10_tick)
  call void bitcast (void (i8*, i8*, i64, i8, i8*)* @assignLow8BitsToInt8 to void (i8*, i8*, i32, i32, i8*)*)(i8* getelementptr inbounds ([71 x i8], [71 x i8]* @.str.10_abc, i32 0, i32 0), i8* %11, i32 71, i32 0, i8* @.str.10_tick)
  store i8 %15, i8* @.str.10_tick, align 1
  %16 = call i32 (i8*, ...) @printf(i8* noundef getelementptr inbounds ([71 x i8], [71 x i8]* @.str.10_abc, i64 0, i64 0), i8* noundef %6, i32 noundef %7)
  call void bitcast (void (i8*, i8*, i64, i8, i8*)* @assignLow8BitsToInt8 to void (i8*, i8*, i32, i32, i8*)*)(i8* getelementptr inbounds ([71 x i8], [71 x i8]* @.str.10_abc, i32 0, i32 0), i8* %12, i32 71, i32 0, i8* @.str.10_tick)
  %17 = load i8*, i8** %3, align 8
  %18 = alloca [8 x i8], align 1
  %19 = alloca [8 x i8], align 1
  %20 = alloca [16 x i8], align 1
  %21 = getelementptr [8 x i8], [8 x i8]* %18, i32 0, i32 0
  %22 = getelementptr [8 x i8], [8 x i8]* %19, i32 0, i32 0
  %23 = getelementptr [16 x i8], [16 x i8]* %20, i32 0, i32 0
  %24 = load i8, i8* @.str.1.11_tick, align 1
  %25 = sub i8 %24, 1
  call void bitcast (void (i8*, i8*, i64, i8, i8*)* @assignLow8BitsToInt8 to void (i8*, i8*, i32, i32, i8*)*)(i8* getelementptr inbounds ([8 x i8], [8 x i8]* @.str.1.11_abc, i32 0, i32 0), i8* %21, i32 8, i32 1, i8* @.str.1.11_tick)
  call void bitcast (void (i8*, i8*, i64, i8, i8*)* @assignLow8BitsToInt8 to void (i8*, i8*, i32, i32, i8*)*)(i8* getelementptr inbounds ([8 x i8], [8 x i8]* @.str.1.11_abc, i32 0, i32 0), i8* %22, i32 8, i32 1, i8* @.str.1.11_tick)
  call void bitcast (void (i8*, i8*, i64, i8, i8*)* @assignLow8BitsToInt8 to void (i8*, i8*, i32, i32, i8*)*)(i8* getelementptr inbounds ([16 x i8], [16 x i8]* @.str.1.11_xyz, i32 0, i32 0), i8* %23, i32 16, i32 1, i8* @.str.1.11_tick)
  call void @genRandomString(i8* %22, i32 8)
  call void @Dec_sm4_ecb_cbc(i32 0, i32 1, i8* %21, i8* %23, i32 16, i8* @.str.1.11_tick)
  call void bitcast (void (i8*, i8*, i64, i8, i8*)* @assignLow8BitsToInt8 to void (i8*, i8*, i32, i32, i8*)*)(i8* getelementptr inbounds ([8 x i8], [8 x i8]* @.str.1.11_abc, i32 0, i32 0), i8* %21, i32 8, i32 0, i8* @.str.1.11_tick)
  store i8 %25, i8* @.str.1.11_tick, align 1
  %26 = call i32 @strcmp(i8* noundef %17, i8* noundef getelementptr inbounds ([8 x i8], [8 x i8]* @.str.1.11_abc, i64 0, i64 0)) #11
  call void bitcast (void (i8*, i8*, i64, i8, i8*)* @assignLow8BitsToInt8 to void (i8*, i8*, i32, i32, i8*)*)(i8* getelementptr inbounds ([8 x i8], [8 x i8]* @.str.1.11_abc, i32 0, i32 0), i8* %22, i32 8, i32 0, i8* @.str.1.11_tick)
  %27 = icmp eq i32 %26, 0
  br i1 %27, label %28, label %38

28:                                               ; preds = %2
  %29 = alloca [53 x i8], align 1
  %30 = alloca [53 x i8], align 1
  %31 = alloca [64 x i8], align 1
  %32 = getelementptr [53 x i8], [53 x i8]* %29, i32 0, i32 0
  %33 = getelementptr [53 x i8], [53 x i8]* %30, i32 0, i32 0
  %34 = getelementptr [64 x i8], [64 x i8]* %31, i32 0, i32 0
  %35 = load i8, i8* @.str.2.12_tick, align 1
  %36 = sub i8 %35, 1
  call void bitcast (void (i8*, i8*, i64, i8, i8*)* @assignLow8BitsToInt8 to void (i8*, i8*, i32, i32, i8*)*)(i8* getelementptr inbounds ([53 x i8], [53 x i8]* @.str.2.12_abc, i32 0, i32 0), i8* %32, i32 53, i32 1, i8* @.str.2.12_tick)
  call void bitcast (void (i8*, i8*, i64, i8, i8*)* @assignLow8BitsToInt8 to void (i8*, i8*, i32, i32, i8*)*)(i8* getelementptr inbounds ([53 x i8], [53 x i8]* @.str.2.12_abc, i32 0, i32 0), i8* %33, i32 53, i32 1, i8* @.str.2.12_tick)
  call void bitcast (void (i8*, i8*, i64, i8, i8*)* @assignLow8BitsToInt8 to void (i8*, i8*, i32, i32, i8*)*)(i8* getelementptr inbounds ([64 x i8], [64 x i8]* @.str.2.12_xyz, i32 0, i32 0), i8* %34, i32 64, i32 1, i8* @.str.2.12_tick)
  call void @genRandomString(i8* %33, i32 53)
  call void @Dec_sm4_ecb_cbc(i32 0, i32 1, i8* %32, i8* %34, i32 64, i8* @.str.2.12_tick)
  call void bitcast (void (i8*, i8*, i64, i8, i8*)* @assignLow8BitsToInt8 to void (i8*, i8*, i32, i32, i8*)*)(i8* getelementptr inbounds ([53 x i8], [53 x i8]* @.str.2.12_abc, i32 0, i32 0), i8* %32, i32 53, i32 0, i8* @.str.2.12_tick)
  store i8 %36, i8* @.str.2.12_tick, align 1
  %37 = call i32 (i8*, ...) @printf(i8* noundef getelementptr inbounds ([53 x i8], [53 x i8]* @.str.2.12_abc, i64 0, i64 0))
  call void bitcast (void (i8*, i8*, i64, i8, i8*)* @assignLow8BitsToInt8 to void (i8*, i8*, i32, i32, i8*)*)(i8* getelementptr inbounds ([53 x i8], [53 x i8]* @.str.2.12_abc, i32 0, i32 0), i8* %33, i32 53, i32 0, i8* @.str.2.12_tick)
  br label %50

38:                                               ; preds = %2
  store i32 5339, i32* %5, align 4
  %39 = load i8*, i8** %3, align 8
  %40 = load i32, i32* %5, align 4
  %41 = alloca [72 x i8], align 1
  %42 = alloca [72 x i8], align 1
  %43 = alloca [80 x i8], align 1
  %44 = getelementptr [72 x i8], [72 x i8]* %41, i32 0, i32 0
  %45 = getelementptr [72 x i8], [72 x i8]* %42, i32 0, i32 0
  %46 = getelementptr [80 x i8], [80 x i8]* %43, i32 0, i32 0
  %47 = load i8, i8* @.str.3.13_tick, align 1
  %48 = sub i8 %47, 1
  call void bitcast (void (i8*, i8*, i64, i8, i8*)* @assignLow8BitsToInt8 to void (i8*, i8*, i32, i32, i8*)*)(i8* getelementptr inbounds ([72 x i8], [72 x i8]* @.str.3.13_abc, i32 0, i32 0), i8* %44, i32 72, i32 1, i8* @.str.3.13_tick)
  call void bitcast (void (i8*, i8*, i64, i8, i8*)* @assignLow8BitsToInt8 to void (i8*, i8*, i32, i32, i8*)*)(i8* getelementptr inbounds ([72 x i8], [72 x i8]* @.str.3.13_abc, i32 0, i32 0), i8* %45, i32 72, i32 1, i8* @.str.3.13_tick)
  call void bitcast (void (i8*, i8*, i64, i8, i8*)* @assignLow8BitsToInt8 to void (i8*, i8*, i32, i32, i8*)*)(i8* getelementptr inbounds ([80 x i8], [80 x i8]* @.str.3.13_xyz, i32 0, i32 0), i8* %46, i32 80, i32 1, i8* @.str.3.13_tick)
  call void @genRandomString(i8* %45, i32 72)
  call void @Dec_sm4_ecb_cbc(i32 0, i32 1, i8* %44, i8* %46, i32 80, i8* @.str.3.13_tick)
  call void bitcast (void (i8*, i8*, i64, i8, i8*)* @assignLow8BitsToInt8 to void (i8*, i8*, i32, i32, i8*)*)(i8* getelementptr inbounds ([72 x i8], [72 x i8]* @.str.3.13_abc, i32 0, i32 0), i8* %44, i32 72, i32 0, i8* @.str.3.13_tick)
  store i8 %48, i8* @.str.3.13_tick, align 1
  %49 = call i32 (i8*, ...) @printf(i8* noundef getelementptr inbounds ([72 x i8], [72 x i8]* @.str.3.13_abc, i64 0, i64 0), i8* noundef %39, i32 noundef %40)
  call void bitcast (void (i8*, i8*, i64, i8, i8*)* @assignLow8BitsToInt8 to void (i8*, i8*, i32, i32, i8*)*)(i8* getelementptr inbounds ([72 x i8], [72 x i8]* @.str.3.13_abc, i32 0, i32 0), i8* %45, i32 72, i32 0, i8* @.str.3.13_tick)
  br label %50

50:                                               ; preds = %38, %28
  ret void
}

; Function Attrs: nounwind readonly willreturn
declare i32 @strcmp(i8* noundef, i8* noundef) #3

; Function Attrs: noinline nounwind optnone uwtable
define dso_local void @_obf_func_Uv0f(i32 noundef %0, i8* noundef %1, i32 noundef %2) #0 {
  %4 = alloca i32, align 4
  %5 = alloca i8*, align 8
  %6 = alloca i32, align 4
  store i32 %0, i32* %4, align 4
  store i8* %1, i8** %5, align 8
  store i32 %2, i32* %6, align 4
  %7 = load i32, i32* %6, align 4
  %8 = load i32, i32* %4, align 4
  %9 = load i32, i32* %6, align 4
  %10 = icmp sgt i32 %9, 10
  br i1 %10, label %11, label %12

11:                                               ; preds = %3
  br label %14

12:                                               ; preds = %3
  %13 = load i32, i32* %6, align 4
  br label %14

14:                                               ; preds = %12, %11
  %15 = phi i32 [ 10, %11 ], [ %13, %12 ]
  %16 = load i8*, i8** %5, align 8
  %17 = alloca [67 x i8], align 1
  %18 = alloca [67 x i8], align 1
  %19 = alloca [80 x i8], align 1
  %20 = getelementptr [67 x i8], [67 x i8]* %17, i32 0, i32 0
  %21 = getelementptr [67 x i8], [67 x i8]* %18, i32 0, i32 0
  %22 = getelementptr [80 x i8], [80 x i8]* %19, i32 0, i32 0
  %23 = load i8, i8* @.str.4.14_tick, align 1
  %24 = sub i8 %23, 1
  call void bitcast (void (i8*, i8*, i64, i8, i8*)* @assignLow8BitsToInt8 to void (i8*, i8*, i32, i32, i8*)*)(i8* getelementptr inbounds ([67 x i8], [67 x i8]* @.str.4.14_abc, i32 0, i32 0), i8* %20, i32 67, i32 1, i8* @.str.4.14_tick)
  call void bitcast (void (i8*, i8*, i64, i8, i8*)* @assignLow8BitsToInt8 to void (i8*, i8*, i32, i32, i8*)*)(i8* getelementptr inbounds ([67 x i8], [67 x i8]* @.str.4.14_abc, i32 0, i32 0), i8* %21, i32 67, i32 1, i8* @.str.4.14_tick)
  call void bitcast (void (i8*, i8*, i64, i8, i8*)* @assignLow8BitsToInt8 to void (i8*, i8*, i32, i32, i8*)*)(i8* getelementptr inbounds ([80 x i8], [80 x i8]* @.str.4.14_xyz, i32 0, i32 0), i8* %22, i32 80, i32 1, i8* @.str.4.14_tick)
  call void @genRandomString(i8* %21, i32 67)
  call void @Dec_sm4_ecb_cbc(i32 0, i32 1, i8* %20, i8* %22, i32 80, i8* @.str.4.14_tick)
  call void bitcast (void (i8*, i8*, i64, i8, i8*)* @assignLow8BitsToInt8 to void (i8*, i8*, i32, i32, i8*)*)(i8* getelementptr inbounds ([67 x i8], [67 x i8]* @.str.4.14_abc, i32 0, i32 0), i8* %20, i32 67, i32 0, i8* @.str.4.14_tick)
  store i8 %24, i8* @.str.4.14_tick, align 1
  %25 = call i32 (i8*, ...) @printf(i8* noundef getelementptr inbounds ([67 x i8], [67 x i8]* @.str.4.14_abc, i64 0, i64 0), i32 noundef %7, i32 noundef %8, i32 noundef %15, i8* noundef %16)
  call void bitcast (void (i8*, i8*, i64, i8, i8*)* @assignLow8BitsToInt8 to void (i8*, i8*, i32, i32, i8*)*)(i8* getelementptr inbounds ([67 x i8], [67 x i8]* @.str.4.14_abc, i32 0, i32 0), i8* %21, i32 67, i32 0, i8* @.str.4.14_tick)
  ret void
}

; Function Attrs: noinline nounwind optnone uwtable
define dso_local i8* @_obf_func_OAtP(i32 noundef %0, i32 noundef %1) #0 {
  %3 = alloca i8*, align 8
  %4 = alloca i32, align 4
  %5 = alloca i32, align 4
  %6 = alloca i8*, align 8
  %7 = alloca i32, align 4
  store i32 %0, i32* %4, align 4
  store i32 %1, i32* %5, align 4
  %8 = load i32, i32* %5, align 4
  %9 = load i32, i32* %4, align 4
  %10 = alloca [65 x i8], align 1
  %11 = alloca [65 x i8], align 1
  %12 = alloca [80 x i8], align 1
  %13 = getelementptr [65 x i8], [65 x i8]* %10, i32 0, i32 0
  %14 = getelementptr [65 x i8], [65 x i8]* %11, i32 0, i32 0
  %15 = getelementptr [80 x i8], [80 x i8]* %12, i32 0, i32 0
  %16 = load i8, i8* @.str.5.15_tick, align 1
  %17 = sub i8 %16, 1
  call void bitcast (void (i8*, i8*, i64, i8, i8*)* @assignLow8BitsToInt8 to void (i8*, i8*, i32, i32, i8*)*)(i8* getelementptr inbounds ([65 x i8], [65 x i8]* @.str.5.15_abc, i32 0, i32 0), i8* %13, i32 65, i32 1, i8* @.str.5.15_tick)
  call void bitcast (void (i8*, i8*, i64, i8, i8*)* @assignLow8BitsToInt8 to void (i8*, i8*, i32, i32, i8*)*)(i8* getelementptr inbounds ([65 x i8], [65 x i8]* @.str.5.15_abc, i32 0, i32 0), i8* %14, i32 65, i32 1, i8* @.str.5.15_tick)
  call void bitcast (void (i8*, i8*, i64, i8, i8*)* @assignLow8BitsToInt8 to void (i8*, i8*, i32, i32, i8*)*)(i8* getelementptr inbounds ([80 x i8], [80 x i8]* @.str.5.15_xyz, i32 0, i32 0), i8* %15, i32 80, i32 1, i8* @.str.5.15_tick)
  call void @genRandomString(i8* %14, i32 65)
  call void @Dec_sm4_ecb_cbc(i32 0, i32 1, i8* %13, i8* %15, i32 80, i8* @.str.5.15_tick)
  call void bitcast (void (i8*, i8*, i64, i8, i8*)* @assignLow8BitsToInt8 to void (i8*, i8*, i32, i32, i8*)*)(i8* getelementptr inbounds ([65 x i8], [65 x i8]* @.str.5.15_abc, i32 0, i32 0), i8* %13, i32 65, i32 0, i8* @.str.5.15_tick)
  store i8 %17, i8* @.str.5.15_tick, align 1
  %18 = call i32 (i8*, ...) @printf(i8* noundef getelementptr inbounds ([65 x i8], [65 x i8]* @.str.5.15_abc, i64 0, i64 0), i32 noundef %8, i32 noundef %9)
  call void bitcast (void (i8*, i8*, i64, i8, i8*)* @assignLow8BitsToInt8 to void (i8*, i8*, i32, i32, i8*)*)(i8* getelementptr inbounds ([65 x i8], [65 x i8]* @.str.5.15_abc, i32 0, i32 0), i8* %14, i32 65, i32 0, i8* @.str.5.15_tick)
  %19 = load i32, i32* %5, align 4
  %20 = add nsw i32 %19, 1
  %21 = sext i32 %20 to i64
  %22 = call noalias i8* @malloc(i64 noundef %21) #10
  store i8* %22, i8** %6, align 8
  %23 = load i8*, i8** %6, align 8
  %24 = icmp ne i8* %23, null
  br i1 %24, label %25, label %58

25:                                               ; preds = %2
  store i32 0, i32* %7, align 4
  br label %26

26:                                               ; preds = %39, %25
  %27 = load i32, i32* %7, align 4
  %28 = load i32, i32* %5, align 4
  %29 = icmp slt i32 %27, %28
  br i1 %29, label %30, label %42

30:                                               ; preds = %26
  %31 = call i32 @rand() #10
  %32 = srem i32 %31, 26
  %33 = add nsw i32 65, %32
  %34 = trunc i32 %33 to i8
  %35 = load i8*, i8** %6, align 8
  %36 = load i32, i32* %7, align 4
  %37 = sext i32 %36 to i64
  %38 = getelementptr inbounds i8, i8* %35, i64 %37
  store i8 %34, i8* %38, align 1
  br label %39

39:                                               ; preds = %30
  %40 = load i32, i32* %7, align 4
  %41 = add nsw i32 %40, 1
  store i32 %41, i32* %7, align 4
  br label %26, !llvm.loop !8

42:                                               ; preds = %26
  %43 = load i8*, i8** %6, align 8
  %44 = load i32, i32* %5, align 4
  %45 = sext i32 %44 to i64
  %46 = getelementptr inbounds i8, i8* %43, i64 %45
  store i8 0, i8* %46, align 1
  %47 = load i8*, i8** %6, align 8
  %48 = alloca [31 x i8], align 1
  %49 = alloca [31 x i8], align 1
  %50 = alloca [32 x i8], align 1
  %51 = getelementptr [31 x i8], [31 x i8]* %48, i32 0, i32 0
  %52 = getelementptr [31 x i8], [31 x i8]* %49, i32 0, i32 0
  %53 = getelementptr [32 x i8], [32 x i8]* %50, i32 0, i32 0
  %54 = load i8, i8* @.str.6.16_tick, align 1
  %55 = sub i8 %54, 1
  call void bitcast (void (i8*, i8*, i64, i8, i8*)* @assignLow8BitsToInt8 to void (i8*, i8*, i32, i32, i8*)*)(i8* getelementptr inbounds ([31 x i8], [31 x i8]* @.str.6.16_abc, i32 0, i32 0), i8* %51, i32 31, i32 1, i8* @.str.6.16_tick)
  call void bitcast (void (i8*, i8*, i64, i8, i8*)* @assignLow8BitsToInt8 to void (i8*, i8*, i32, i32, i8*)*)(i8* getelementptr inbounds ([31 x i8], [31 x i8]* @.str.6.16_abc, i32 0, i32 0), i8* %52, i32 31, i32 1, i8* @.str.6.16_tick)
  call void bitcast (void (i8*, i8*, i64, i8, i8*)* @assignLow8BitsToInt8 to void (i8*, i8*, i32, i32, i8*)*)(i8* getelementptr inbounds ([32 x i8], [32 x i8]* @.str.6.16_xyz, i32 0, i32 0), i8* %53, i32 32, i32 1, i8* @.str.6.16_tick)
  call void @genRandomString(i8* %52, i32 31)
  call void @Dec_sm4_ecb_cbc(i32 0, i32 1, i8* %51, i8* %53, i32 32, i8* @.str.6.16_tick)
  call void bitcast (void (i8*, i8*, i64, i8, i8*)* @assignLow8BitsToInt8 to void (i8*, i8*, i32, i32, i8*)*)(i8* getelementptr inbounds ([31 x i8], [31 x i8]* @.str.6.16_abc, i32 0, i32 0), i8* %51, i32 31, i32 0, i8* @.str.6.16_tick)
  store i8 %55, i8* @.str.6.16_tick, align 1
  %56 = call i32 (i8*, ...) @printf(i8* noundef getelementptr inbounds ([31 x i8], [31 x i8]* @.str.6.16_abc, i64 0, i64 0), i8* noundef %47)
  call void bitcast (void (i8*, i8*, i64, i8, i8*)* @assignLow8BitsToInt8 to void (i8*, i8*, i32, i32, i8*)*)(i8* getelementptr inbounds ([31 x i8], [31 x i8]* @.str.6.16_abc, i32 0, i32 0), i8* %52, i32 31, i32 0, i8* @.str.6.16_tick)
  %57 = load i8*, i8** %6, align 8
  store i8* %57, i8** %3, align 8
  br label %68

58:                                               ; preds = %2
  %59 = alloca [55 x i8], align 1
  %60 = alloca [55 x i8], align 1
  %61 = alloca [64 x i8], align 1
  %62 = getelementptr [55 x i8], [55 x i8]* %59, i32 0, i32 0
  %63 = getelementptr [55 x i8], [55 x i8]* %60, i32 0, i32 0
  %64 = getelementptr [64 x i8], [64 x i8]* %61, i32 0, i32 0
  %65 = load i8, i8* @.str.7.17_tick, align 1
  %66 = sub i8 %65, 1
  call void bitcast (void (i8*, i8*, i64, i8, i8*)* @assignLow8BitsToInt8 to void (i8*, i8*, i32, i32, i8*)*)(i8* getelementptr inbounds ([55 x i8], [55 x i8]* @.str.7.17_abc, i32 0, i32 0), i8* %62, i32 55, i32 1, i8* @.str.7.17_tick)
  call void bitcast (void (i8*, i8*, i64, i8, i8*)* @assignLow8BitsToInt8 to void (i8*, i8*, i32, i32, i8*)*)(i8* getelementptr inbounds ([55 x i8], [55 x i8]* @.str.7.17_abc, i32 0, i32 0), i8* %63, i32 55, i32 1, i8* @.str.7.17_tick)
  call void bitcast (void (i8*, i8*, i64, i8, i8*)* @assignLow8BitsToInt8 to void (i8*, i8*, i32, i32, i8*)*)(i8* getelementptr inbounds ([64 x i8], [64 x i8]* @.str.7.17_xyz, i32 0, i32 0), i8* %64, i32 64, i32 1, i8* @.str.7.17_tick)
  call void @genRandomString(i8* %63, i32 55)
  call void @Dec_sm4_ecb_cbc(i32 0, i32 1, i8* %62, i8* %64, i32 64, i8* @.str.7.17_tick)
  call void bitcast (void (i8*, i8*, i64, i8, i8*)* @assignLow8BitsToInt8 to void (i8*, i8*, i32, i32, i8*)*)(i8* getelementptr inbounds ([55 x i8], [55 x i8]* @.str.7.17_abc, i32 0, i32 0), i8* %62, i32 55, i32 0, i8* @.str.7.17_tick)
  store i8 %66, i8* @.str.7.17_tick, align 1
  %67 = call i32 (i8*, ...) @printf(i8* noundef getelementptr inbounds ([55 x i8], [55 x i8]* @.str.7.17_abc, i64 0, i64 0))
  call void bitcast (void (i8*, i8*, i64, i8, i8*)* @assignLow8BitsToInt8 to void (i8*, i8*, i32, i32, i8*)*)(i8* getelementptr inbounds ([55 x i8], [55 x i8]* @.str.7.17_abc, i32 0, i32 0), i8* %63, i32 55, i32 0, i8* @.str.7.17_tick)
  store i8* null, i8** %3, align 8
  br label %68

68:                                               ; preds = %58, %42
  %69 = load i8*, i8** %3, align 8
  ret i8* %69
}

; Function Attrs: nounwind
declare noalias i8* @malloc(i64 noundef) #2

; Function Attrs: nounwind
declare i32 @rand() #2

; Function Attrs: noinline nounwind optnone uwtable
define dso_local void @_obf_func_ZkSU(i32 noundef %0) #0 {
  %2 = alloca i32, align 4
  store i32 %0, i32* %2, align 4
  %3 = load i32, i32* %2, align 4
  %4 = alloca [35 x i8], align 1
  %5 = alloca [35 x i8], align 1
  %6 = alloca [48 x i8], align 1
  %7 = getelementptr [35 x i8], [35 x i8]* %4, i32 0, i32 0
  %8 = getelementptr [35 x i8], [35 x i8]* %5, i32 0, i32 0
  %9 = getelementptr [48 x i8], [48 x i8]* %6, i32 0, i32 0
  %10 = load i8, i8* @.str.8.18_tick, align 1
  %11 = sub i8 %10, 1
  call void bitcast (void (i8*, i8*, i64, i8, i8*)* @assignLow8BitsToInt8 to void (i8*, i8*, i32, i32, i8*)*)(i8* getelementptr inbounds ([35 x i8], [35 x i8]* @.str.8.18_abc, i32 0, i32 0), i8* %7, i32 35, i32 1, i8* @.str.8.18_tick)
  call void bitcast (void (i8*, i8*, i64, i8, i8*)* @assignLow8BitsToInt8 to void (i8*, i8*, i32, i32, i8*)*)(i8* getelementptr inbounds ([35 x i8], [35 x i8]* @.str.8.18_abc, i32 0, i32 0), i8* %8, i32 35, i32 1, i8* @.str.8.18_tick)
  call void bitcast (void (i8*, i8*, i64, i8, i8*)* @assignLow8BitsToInt8 to void (i8*, i8*, i32, i32, i8*)*)(i8* getelementptr inbounds ([48 x i8], [48 x i8]* @.str.8.18_xyz, i32 0, i32 0), i8* %9, i32 48, i32 1, i8* @.str.8.18_tick)
  call void @genRandomString(i8* %8, i32 35)
  call void @Dec_sm4_ecb_cbc(i32 0, i32 1, i8* %7, i8* %9, i32 48, i8* @.str.8.18_tick)
  call void bitcast (void (i8*, i8*, i64, i8, i8*)* @assignLow8BitsToInt8 to void (i8*, i8*, i32, i32, i8*)*)(i8* getelementptr inbounds ([35 x i8], [35 x i8]* @.str.8.18_abc, i32 0, i32 0), i8* %7, i32 35, i32 0, i8* @.str.8.18_tick)
  store i8 %11, i8* @.str.8.18_tick, align 1
  %12 = call i32 (i8*, ...) @printf(i8* noundef getelementptr inbounds ([35 x i8], [35 x i8]* @.str.8.18_abc, i64 0, i64 0), i32 noundef %3)
  call void bitcast (void (i8*, i8*, i64, i8, i8*)* @assignLow8BitsToInt8 to void (i8*, i8*, i32, i32, i8*)*)(i8* getelementptr inbounds ([35 x i8], [35 x i8]* @.str.8.18_abc, i32 0, i32 0), i8* %8, i32 35, i32 0, i8* @.str.8.18_tick)
  ret void
}

; Function Attrs: noinline nounwind optnone uwtable
define dso_local i32 @main(i32 noundef %0, i8** noundef %1) #0 {
  %3 = alloca i32, align 4
  %4 = alloca i32, align 4
  %5 = alloca i8**, align 8
  %6 = alloca i32, align 4
  store i32 0, i32* %3, align 4
  store i32 %0, i32* %4, align 4
  store i8** %1, i8*** %5, align 8
  %7 = alloca [54 x i8], align 1
  %8 = alloca [54 x i8], align 1
  %9 = alloca [64 x i8], align 1
  %10 = getelementptr [54 x i8], [54 x i8]* %7, i32 0, i32 0
  %11 = getelementptr [54 x i8], [54 x i8]* %8, i32 0, i32 0
  %12 = getelementptr [64 x i8], [64 x i8]* %9, i32 0, i32 0
  %13 = load i8, i8* @.str.19_tick, align 1
  %14 = sub i8 %13, 1
  call void bitcast (void (i8*, i8*, i64, i8, i8*)* @assignLow8BitsToInt8 to void (i8*, i8*, i32, i32, i8*)*)(i8* getelementptr inbounds ([54 x i8], [54 x i8]* @.str.19_abc, i32 0, i32 0), i8* %10, i32 54, i32 1, i8* @.str.19_tick)
  call void bitcast (void (i8*, i8*, i64, i8, i8*)* @assignLow8BitsToInt8 to void (i8*, i8*, i32, i32, i8*)*)(i8* getelementptr inbounds ([54 x i8], [54 x i8]* @.str.19_abc, i32 0, i32 0), i8* %11, i32 54, i32 1, i8* @.str.19_tick)
  call void bitcast (void (i8*, i8*, i64, i8, i8*)* @assignLow8BitsToInt8 to void (i8*, i8*, i32, i32, i8*)*)(i8* getelementptr inbounds ([64 x i8], [64 x i8]* @.str.19_xyz, i32 0, i32 0), i8* %12, i32 64, i32 1, i8* @.str.19_tick)
  call void @genRandomString(i8* %11, i32 54)
  call void @Dec_sm4_ecb_cbc(i32 0, i32 1, i8* %10, i8* %12, i32 64, i8* @.str.19_tick)
  call void bitcast (void (i8*, i8*, i64, i8, i8*)* @assignLow8BitsToInt8 to void (i8*, i8*, i32, i32, i8*)*)(i8* getelementptr inbounds ([54 x i8], [54 x i8]* @.str.19_abc, i32 0, i32 0), i8* %10, i32 54, i32 0, i8* @.str.19_tick)
  store i8 %14, i8* @.str.19_tick, align 1
  %15 = call i32 (i8*, ...) @printf(i8* noundef getelementptr inbounds ([54 x i8], [54 x i8]* @.str.19_abc, i64 0, i64 0))
  call void bitcast (void (i8*, i8*, i64, i8, i8*)* @assignLow8BitsToInt8 to void (i8*, i8*, i32, i32, i8*)*)(i8* getelementptr inbounds ([54 x i8], [54 x i8]* @.str.19_abc, i32 0, i32 0), i8* %11, i32 54, i32 0, i8* @.str.19_tick)
  call void @srand(i32 noundef 32768) #10
  %16 = call i32 @_obf_func_fKSK()
  store i32 %16, i32* %6, align 4
  %17 = load i32, i32* %6, align 4
  %18 = alloca [49 x i8], align 1
  %19 = alloca [49 x i8], align 1
  %20 = alloca [64 x i8], align 1
  %21 = getelementptr [49 x i8], [49 x i8]* %18, i32 0, i32 0
  %22 = getelementptr [49 x i8], [49 x i8]* %19, i32 0, i32 0
  %23 = getelementptr [64 x i8], [64 x i8]* %20, i32 0, i32 0
  %24 = load i8, i8* @.str.1.20_tick, align 1
  %25 = sub i8 %24, 1
  call void bitcast (void (i8*, i8*, i64, i8, i8*)* @assignLow8BitsToInt8 to void (i8*, i8*, i32, i32, i8*)*)(i8* getelementptr inbounds ([49 x i8], [49 x i8]* @.str.1.20_abc, i32 0, i32 0), i8* %21, i32 49, i32 1, i8* @.str.1.20_tick)
  call void bitcast (void (i8*, i8*, i64, i8, i8*)* @assignLow8BitsToInt8 to void (i8*, i8*, i32, i32, i8*)*)(i8* getelementptr inbounds ([49 x i8], [49 x i8]* @.str.1.20_abc, i32 0, i32 0), i8* %22, i32 49, i32 1, i8* @.str.1.20_tick)
  call void bitcast (void (i8*, i8*, i64, i8, i8*)* @assignLow8BitsToInt8 to void (i8*, i8*, i32, i32, i8*)*)(i8* getelementptr inbounds ([64 x i8], [64 x i8]* @.str.1.20_xyz, i32 0, i32 0), i8* %23, i32 64, i32 1, i8* @.str.1.20_tick)
  call void @genRandomString(i8* %22, i32 49)
  call void @Dec_sm4_ecb_cbc(i32 0, i32 1, i8* %21, i8* %23, i32 64, i8* @.str.1.20_tick)
  call void bitcast (void (i8*, i8*, i64, i8, i8*)* @assignLow8BitsToInt8 to void (i8*, i8*, i32, i32, i8*)*)(i8* getelementptr inbounds ([49 x i8], [49 x i8]* @.str.1.20_abc, i32 0, i32 0), i8* %21, i32 49, i32 0, i8* @.str.1.20_tick)
  store i8 %25, i8* @.str.1.20_tick, align 1
  %26 = call i32 (i8*, ...) @printf(i8* noundef getelementptr inbounds ([49 x i8], [49 x i8]* @.str.1.20_abc, i64 0, i64 0), i32 noundef %17)
  call void bitcast (void (i8*, i8*, i64, i8, i8*)* @assignLow8BitsToInt8 to void (i8*, i8*, i32, i32, i8*)*)(i8* getelementptr inbounds ([49 x i8], [49 x i8]* @.str.1.20_abc, i32 0, i32 0), i8* %22, i32 49, i32 0, i8* @.str.1.20_tick)
  %27 = alloca [45 x i8], align 1
  %28 = alloca [45 x i8], align 1
  %29 = alloca [48 x i8], align 1
  %30 = getelementptr [45 x i8], [45 x i8]* %27, i32 0, i32 0
  %31 = getelementptr [45 x i8], [45 x i8]* %28, i32 0, i32 0
  %32 = getelementptr [48 x i8], [48 x i8]* %29, i32 0, i32 0
  %33 = load i8, i8* @.str.2.21_tick, align 1
  %34 = sub i8 %33, 1
  call void bitcast (void (i8*, i8*, i64, i8, i8*)* @assignLow8BitsToInt8 to void (i8*, i8*, i32, i32, i8*)*)(i8* getelementptr inbounds ([45 x i8], [45 x i8]* @.str.2.21_abc, i32 0, i32 0), i8* %30, i32 45, i32 1, i8* @.str.2.21_tick)
  call void bitcast (void (i8*, i8*, i64, i8, i8*)* @assignLow8BitsToInt8 to void (i8*, i8*, i32, i32, i8*)*)(i8* getelementptr inbounds ([45 x i8], [45 x i8]* @.str.2.21_abc, i32 0, i32 0), i8* %31, i32 45, i32 1, i8* @.str.2.21_tick)
  call void bitcast (void (i8*, i8*, i64, i8, i8*)* @assignLow8BitsToInt8 to void (i8*, i8*, i32, i32, i8*)*)(i8* getelementptr inbounds ([48 x i8], [48 x i8]* @.str.2.21_xyz, i32 0, i32 0), i8* %32, i32 48, i32 1, i8* @.str.2.21_tick)
  call void @genRandomString(i8* %31, i32 45)
  call void @Dec_sm4_ecb_cbc(i32 0, i32 1, i8* %30, i8* %32, i32 48, i8* @.str.2.21_tick)
  call void bitcast (void (i8*, i8*, i64, i8, i8*)* @assignLow8BitsToInt8 to void (i8*, i8*, i32, i32, i8*)*)(i8* getelementptr inbounds ([45 x i8], [45 x i8]* @.str.2.21_abc, i32 0, i32 0), i8* %30, i32 45, i32 0, i8* @.str.2.21_tick)
  store i8 %34, i8* @.str.2.21_tick, align 1
  %35 = call i32 (i8*, ...) @printf(i8* noundef getelementptr inbounds ([45 x i8], [45 x i8]* @.str.2.21_abc, i64 0, i64 0))
  call void bitcast (void (i8*, i8*, i64, i8, i8*)* @assignLow8BitsToInt8 to void (i8*, i8*, i32, i32, i8*)*)(i8* getelementptr inbounds ([45 x i8], [45 x i8]* @.str.2.21_abc, i32 0, i32 0), i8* %31, i32 45, i32 0, i8* @.str.2.21_tick)
  %36 = load i32, i32* %6, align 4
  ret i32 %36
}

; Function Attrs: nounwind
declare void @srand(i32 noundef) #2

; Function Attrs: noinline nounwind optnone uwtable
define dso_local i32 @_obf_func_fKSK() #0 {
  %1 = alloca [24 x i8], align 16
  %2 = alloca i8*, align 8
  %3 = alloca %struct.StringStruct, align 8
  %4 = alloca i8*, align 8
  %5 = alloca i8*, align 8
  %6 = bitcast [24 x i8]* %1 to i8*
  %7 = alloca [24 x i8], align 1
  %8 = alloca [24 x i8], align 1
  %9 = alloca [32 x i8], align 1
  %10 = getelementptr [24 x i8], [24 x i8]* %7, i32 0, i32 0
  %11 = getelementptr [24 x i8], [24 x i8]* %8, i32 0, i32 0
  %12 = getelementptr [32 x i8], [32 x i8]* %9, i32 0, i32 0
  %13 = load i8, i8* @__const.execute_core_string_operations.localString_tick, align 1
  %14 = sub i8 %13, 1
  call void bitcast (void (i8*, i8*, i64, i8, i8*)* @assignLow8BitsToInt8 to void (i8*, i8*, i32, i32, i8*)*)(i8* getelementptr inbounds ([24 x i8], [24 x i8]* @__const.execute_core_string_operations.localString_abc, i32 0, i32 0), i8* %10, i32 24, i32 1, i8* @__const.execute_core_string_operations.localString_tick)
  call void bitcast (void (i8*, i8*, i64, i8, i8*)* @assignLow8BitsToInt8 to void (i8*, i8*, i32, i32, i8*)*)(i8* getelementptr inbounds ([24 x i8], [24 x i8]* @__const.execute_core_string_operations.localString_abc, i32 0, i32 0), i8* %11, i32 24, i32 1, i8* @__const.execute_core_string_operations.localString_tick)
  call void bitcast (void (i8*, i8*, i64, i8, i8*)* @assignLow8BitsToInt8 to void (i8*, i8*, i32, i32, i8*)*)(i8* getelementptr inbounds ([32 x i8], [32 x i8]* @__const.execute_core_string_operations.localString_xyz, i32 0, i32 0), i8* %12, i32 32, i32 1, i8* @__const.execute_core_string_operations.localString_tick)
  call void @genRandomString(i8* %11, i32 24)
  call void @Dec_sm4_ecb_cbc(i32 0, i32 1, i8* %10, i8* %12, i32 32, i8* @__const.execute_core_string_operations.localString_tick)
  call void bitcast (void (i8*, i8*, i64, i8, i8*)* @assignLow8BitsToInt8 to void (i8*, i8*, i32, i32, i8*)*)(i8* getelementptr inbounds ([24 x i8], [24 x i8]* @__const.execute_core_string_operations.localString_abc, i32 0, i32 0), i8* %10, i32 24, i32 0, i8* @__const.execute_core_string_operations.localString_tick)
  store i8 %14, i8* @__const.execute_core_string_operations.localString_tick, align 1
  call void @llvm.memcpy.p0i8.p0i8.i64(i8* align 16 %6, i8* align 16 getelementptr inbounds ([24 x i8], [24 x i8]* @__const.execute_core_string_operations.localString_abc, i32 0, i32 0), i64 24, i1 false)
  call void bitcast (void (i8*, i8*, i64, i8, i8*)* @assignLow8BitsToInt8 to void (i8*, i8*, i32, i32, i8*)*)(i8* getelementptr inbounds ([24 x i8], [24 x i8]* @__const.execute_core_string_operations.localString_abc, i32 0, i32 0), i8* %11, i32 24, i32 0, i8* @__const.execute_core_string_operations.localString_tick)
  %15 = call noalias i8* @malloc(i64 noundef 30) #10
  store i8* %15, i8** %2, align 8
  %16 = load i8*, i8** %2, align 8
  %17 = icmp ne i8* %16, null
  br i1 %17, label %18, label %29

18:                                               ; preds = %0
  %19 = load i8*, i8** %2, align 8
  %20 = alloca [33 x i8], align 1
  %21 = alloca [33 x i8], align 1
  %22 = alloca [48 x i8], align 1
  %23 = getelementptr [33 x i8], [33 x i8]* %20, i32 0, i32 0
  %24 = getelementptr [33 x i8], [33 x i8]* %21, i32 0, i32 0
  %25 = getelementptr [48 x i8], [48 x i8]* %22, i32 0, i32 0
  %26 = load i8, i8* @.str.24_tick, align 1
  %27 = sub i8 %26, 1
  call void bitcast (void (i8*, i8*, i64, i8, i8*)* @assignLow8BitsToInt8 to void (i8*, i8*, i32, i32, i8*)*)(i8* getelementptr inbounds ([33 x i8], [33 x i8]* @.str.24_abc, i32 0, i32 0), i8* %23, i32 33, i32 1, i8* @.str.24_tick)
  call void bitcast (void (i8*, i8*, i64, i8, i8*)* @assignLow8BitsToInt8 to void (i8*, i8*, i32, i32, i8*)*)(i8* getelementptr inbounds ([33 x i8], [33 x i8]* @.str.24_abc, i32 0, i32 0), i8* %24, i32 33, i32 1, i8* @.str.24_tick)
  call void bitcast (void (i8*, i8*, i64, i8, i8*)* @assignLow8BitsToInt8 to void (i8*, i8*, i32, i32, i8*)*)(i8* getelementptr inbounds ([48 x i8], [48 x i8]* @.str.24_xyz, i32 0, i32 0), i8* %25, i32 48, i32 1, i8* @.str.24_tick)
  call void @genRandomString(i8* %24, i32 33)
  call void @Dec_sm4_ecb_cbc(i32 0, i32 1, i8* %23, i8* %25, i32 48, i8* @.str.24_tick)
  call void bitcast (void (i8*, i8*, i64, i8, i8*)* @assignLow8BitsToInt8 to void (i8*, i8*, i32, i32, i8*)*)(i8* getelementptr inbounds ([33 x i8], [33 x i8]* @.str.24_abc, i32 0, i32 0), i8* %23, i32 33, i32 0, i8* @.str.24_tick)
  store i8 %27, i8* @.str.24_tick, align 1
  %28 = call i8* @strcpy(i8* noundef %19, i8* noundef getelementptr inbounds ([33 x i8], [33 x i8]* @.str.24_abc, i64 0, i64 0)) #10
  call void bitcast (void (i8*, i8*, i64, i8, i8*)* @assignLow8BitsToInt8 to void (i8*, i8*, i32, i32, i8*)*)(i8* getelementptr inbounds ([33 x i8], [33 x i8]* @.str.24_abc, i32 0, i32 0), i8* %24, i32 33, i32 0, i8* @.str.24_tick)
  br label %39

29:                                               ; preds = %0
  %30 = alloca [39 x i8], align 1
  %31 = alloca [39 x i8], align 1
  %32 = alloca [48 x i8], align 1
  %33 = getelementptr [39 x i8], [39 x i8]* %30, i32 0, i32 0
  %34 = getelementptr [39 x i8], [39 x i8]* %31, i32 0, i32 0
  %35 = getelementptr [48 x i8], [48 x i8]* %32, i32 0, i32 0
  %36 = load i8, i8* @.str.1.25_tick, align 1
  %37 = sub i8 %36, 1
  call void bitcast (void (i8*, i8*, i64, i8, i8*)* @assignLow8BitsToInt8 to void (i8*, i8*, i32, i32, i8*)*)(i8* getelementptr inbounds ([39 x i8], [39 x i8]* @.str.1.25_abc, i32 0, i32 0), i8* %33, i32 39, i32 1, i8* @.str.1.25_tick)
  call void bitcast (void (i8*, i8*, i64, i8, i8*)* @assignLow8BitsToInt8 to void (i8*, i8*, i32, i32, i8*)*)(i8* getelementptr inbounds ([39 x i8], [39 x i8]* @.str.1.25_abc, i32 0, i32 0), i8* %34, i32 39, i32 1, i8* @.str.1.25_tick)
  call void bitcast (void (i8*, i8*, i64, i8, i8*)* @assignLow8BitsToInt8 to void (i8*, i8*, i32, i32, i8*)*)(i8* getelementptr inbounds ([48 x i8], [48 x i8]* @.str.1.25_xyz, i32 0, i32 0), i8* %35, i32 48, i32 1, i8* @.str.1.25_tick)
  call void @genRandomString(i8* %34, i32 39)
  call void @Dec_sm4_ecb_cbc(i32 0, i32 1, i8* %33, i8* %35, i32 48, i8* @.str.1.25_tick)
  call void bitcast (void (i8*, i8*, i64, i8, i8*)* @assignLow8BitsToInt8 to void (i8*, i8*, i32, i32, i8*)*)(i8* getelementptr inbounds ([39 x i8], [39 x i8]* @.str.1.25_abc, i32 0, i32 0), i8* %33, i32 39, i32 0, i8* @.str.1.25_tick)
  store i8 %37, i8* @.str.1.25_tick, align 1
  %38 = call i32 (i8*, ...) @printf(i8* noundef getelementptr inbounds ([39 x i8], [39 x i8]* @.str.1.25_abc, i64 0, i64 0))
  call void bitcast (void (i8*, i8*, i64, i8, i8*)* @assignLow8BitsToInt8 to void (i8*, i8*, i32, i32, i8*)*)(i8* getelementptr inbounds ([39 x i8], [39 x i8]* @.str.1.25_abc, i32 0, i32 0), i8* %34, i32 39, i32 0, i8* @.str.1.25_tick)
  br label %39

39:                                               ; preds = %29, %18
  %40 = getelementptr inbounds %struct.StringStruct, %struct.StringStruct* %3, i32 0, i32 0
  %41 = getelementptr inbounds [20 x i8], [20 x i8]* %40, i64 0, i64 0
  %42 = alloca [13 x i8], align 1
  %43 = alloca [13 x i8], align 1
  %44 = alloca [16 x i8], align 1
  %45 = getelementptr [13 x i8], [13 x i8]* %42, i32 0, i32 0
  %46 = getelementptr [13 x i8], [13 x i8]* %43, i32 0, i32 0
  %47 = getelementptr [16 x i8], [16 x i8]* %44, i32 0, i32 0
  %48 = load i8, i8* @.str.2.26_tick, align 1
  %49 = sub i8 %48, 1
  call void bitcast (void (i8*, i8*, i64, i8, i8*)* @assignLow8BitsToInt8 to void (i8*, i8*, i32, i32, i8*)*)(i8* getelementptr inbounds ([13 x i8], [13 x i8]* @.str.2.26_abc, i32 0, i32 0), i8* %45, i32 13, i32 1, i8* @.str.2.26_tick)
  call void bitcast (void (i8*, i8*, i64, i8, i8*)* @assignLow8BitsToInt8 to void (i8*, i8*, i32, i32, i8*)*)(i8* getelementptr inbounds ([13 x i8], [13 x i8]* @.str.2.26_abc, i32 0, i32 0), i8* %46, i32 13, i32 1, i8* @.str.2.26_tick)
  call void bitcast (void (i8*, i8*, i64, i8, i8*)* @assignLow8BitsToInt8 to void (i8*, i8*, i32, i32, i8*)*)(i8* getelementptr inbounds ([16 x i8], [16 x i8]* @.str.2.26_xyz, i32 0, i32 0), i8* %47, i32 16, i32 1, i8* @.str.2.26_tick)
  call void @genRandomString(i8* %46, i32 13)
  call void @Dec_sm4_ecb_cbc(i32 0, i32 1, i8* %45, i8* %47, i32 16, i8* @.str.2.26_tick)
  call void bitcast (void (i8*, i8*, i64, i8, i8*)* @assignLow8BitsToInt8 to void (i8*, i8*, i32, i32, i8*)*)(i8* getelementptr inbounds ([13 x i8], [13 x i8]* @.str.2.26_abc, i32 0, i32 0), i8* %45, i32 13, i32 0, i8* @.str.2.26_tick)
  store i8 %49, i8* @.str.2.26_tick, align 1
  %50 = call i8* @strncpy(i8* noundef %41, i8* noundef getelementptr inbounds ([13 x i8], [13 x i8]* @.str.2.26_abc, i64 0, i64 0), i64 noundef 19) #10
  call void bitcast (void (i8*, i8*, i64, i8, i8*)* @assignLow8BitsToInt8 to void (i8*, i8*, i32, i32, i8*)*)(i8* getelementptr inbounds ([13 x i8], [13 x i8]* @.str.2.26_abc, i32 0, i32 0), i8* %46, i32 13, i32 0, i8* @.str.2.26_tick)
  %51 = getelementptr inbounds %struct.StringStruct, %struct.StringStruct* %3, i32 0, i32 0
  %52 = getelementptr inbounds [20 x i8], [20 x i8]* %51, i64 0, i64 19
  store i8 0, i8* %52, align 1
  %53 = call noalias i8* @malloc(i64 noundef 20) #10
  %54 = getelementptr inbounds %struct.StringStruct, %struct.StringStruct* %3, i32 0, i32 1
  store i8* %53, i8** %54, align 8
  %55 = getelementptr inbounds %struct.StringStruct, %struct.StringStruct* %3, i32 0, i32 1
  %56 = load i8*, i8** %55, align 8
  %57 = icmp ne i8* %56, null
  br i1 %57, label %58, label %70

58:                                               ; preds = %39
  %59 = getelementptr inbounds %struct.StringStruct, %struct.StringStruct* %3, i32 0, i32 1
  %60 = load i8*, i8** %59, align 8
  %61 = alloca [15 x i8], align 1
  %62 = alloca [15 x i8], align 1
  %63 = alloca [16 x i8], align 1
  %64 = getelementptr [15 x i8], [15 x i8]* %61, i32 0, i32 0
  %65 = getelementptr [15 x i8], [15 x i8]* %62, i32 0, i32 0
  %66 = getelementptr [16 x i8], [16 x i8]* %63, i32 0, i32 0
  %67 = load i8, i8* @.str.3.27_tick, align 1
  %68 = sub i8 %67, 1
  call void bitcast (void (i8*, i8*, i64, i8, i8*)* @assignLow8BitsToInt8 to void (i8*, i8*, i32, i32, i8*)*)(i8* getelementptr inbounds ([15 x i8], [15 x i8]* @.str.3.27_abc, i32 0, i32 0), i8* %64, i32 15, i32 1, i8* @.str.3.27_tick)
  call void bitcast (void (i8*, i8*, i64, i8, i8*)* @assignLow8BitsToInt8 to void (i8*, i8*, i32, i32, i8*)*)(i8* getelementptr inbounds ([15 x i8], [15 x i8]* @.str.3.27_abc, i32 0, i32 0), i8* %65, i32 15, i32 1, i8* @.str.3.27_tick)
  call void bitcast (void (i8*, i8*, i64, i8, i8*)* @assignLow8BitsToInt8 to void (i8*, i8*, i32, i32, i8*)*)(i8* getelementptr inbounds ([16 x i8], [16 x i8]* @.str.3.27_xyz, i32 0, i32 0), i8* %66, i32 16, i32 1, i8* @.str.3.27_tick)
  call void @genRandomString(i8* %65, i32 15)
  call void @Dec_sm4_ecb_cbc(i32 0, i32 1, i8* %64, i8* %66, i32 16, i8* @.str.3.27_tick)
  call void bitcast (void (i8*, i8*, i64, i8, i8*)* @assignLow8BitsToInt8 to void (i8*, i8*, i32, i32, i8*)*)(i8* getelementptr inbounds ([15 x i8], [15 x i8]* @.str.3.27_abc, i32 0, i32 0), i8* %64, i32 15, i32 0, i8* @.str.3.27_tick)
  store i8 %68, i8* @.str.3.27_tick, align 1
  %69 = call i8* @strcpy(i8* noundef %60, i8* noundef getelementptr inbounds ([15 x i8], [15 x i8]* @.str.3.27_abc, i64 0, i64 0)) #10
  call void bitcast (void (i8*, i8*, i64, i8, i8*)* @assignLow8BitsToInt8 to void (i8*, i8*, i32, i32, i8*)*)(i8* getelementptr inbounds ([15 x i8], [15 x i8]* @.str.3.27_abc, i32 0, i32 0), i8* %65, i32 15, i32 0, i8* @.str.3.27_tick)
  br label %80

70:                                               ; preds = %39
  %71 = alloca [51 x i8], align 1
  %72 = alloca [51 x i8], align 1
  %73 = alloca [64 x i8], align 1
  %74 = getelementptr [51 x i8], [51 x i8]* %71, i32 0, i32 0
  %75 = getelementptr [51 x i8], [51 x i8]* %72, i32 0, i32 0
  %76 = getelementptr [64 x i8], [64 x i8]* %73, i32 0, i32 0
  %77 = load i8, i8* @.str.4.28_tick, align 1
  %78 = sub i8 %77, 1
  call void bitcast (void (i8*, i8*, i64, i8, i8*)* @assignLow8BitsToInt8 to void (i8*, i8*, i32, i32, i8*)*)(i8* getelementptr inbounds ([51 x i8], [51 x i8]* @.str.4.28_abc, i32 0, i32 0), i8* %74, i32 51, i32 1, i8* @.str.4.28_tick)
  call void bitcast (void (i8*, i8*, i64, i8, i8*)* @assignLow8BitsToInt8 to void (i8*, i8*, i32, i32, i8*)*)(i8* getelementptr inbounds ([51 x i8], [51 x i8]* @.str.4.28_abc, i32 0, i32 0), i8* %75, i32 51, i32 1, i8* @.str.4.28_tick)
  call void bitcast (void (i8*, i8*, i64, i8, i8*)* @assignLow8BitsToInt8 to void (i8*, i8*, i32, i32, i8*)*)(i8* getelementptr inbounds ([64 x i8], [64 x i8]* @.str.4.28_xyz, i32 0, i32 0), i8* %76, i32 64, i32 1, i8* @.str.4.28_tick)
  call void @genRandomString(i8* %75, i32 51)
  call void @Dec_sm4_ecb_cbc(i32 0, i32 1, i8* %74, i8* %76, i32 64, i8* @.str.4.28_tick)
  call void bitcast (void (i8*, i8*, i64, i8, i8*)* @assignLow8BitsToInt8 to void (i8*, i8*, i32, i32, i8*)*)(i8* getelementptr inbounds ([51 x i8], [51 x i8]* @.str.4.28_abc, i32 0, i32 0), i8* %74, i32 51, i32 0, i8* @.str.4.28_tick)
  store i8 %78, i8* @.str.4.28_tick, align 1
  %79 = call i32 (i8*, ...) @printf(i8* noundef getelementptr inbounds ([51 x i8], [51 x i8]* @.str.4.28_abc, i64 0, i64 0))
  call void bitcast (void (i8*, i8*, i64, i8, i8*)* @assignLow8BitsToInt8 to void (i8*, i8*, i32, i32, i8*)*)(i8* getelementptr inbounds ([51 x i8], [51 x i8]* @.str.4.28_abc, i32 0, i32 0), i8* %75, i32 51, i32 0, i8* @.str.4.28_tick)
  br label %80

80:                                               ; preds = %70, %58
  %81 = alloca [14 x i8], align 1
  %82 = alloca [14 x i8], align 1
  %83 = alloca [16 x i8], align 1
  %84 = getelementptr [14 x i8], [14 x i8]* %81, i32 0, i32 0
  %85 = getelementptr [14 x i8], [14 x i8]* %82, i32 0, i32 0
  %86 = getelementptr [16 x i8], [16 x i8]* %83, i32 0, i32 0
  %87 = load i8, i8* @.str.5.29_tick, align 1
  %88 = sub i8 %87, 1
  call void bitcast (void (i8*, i8*, i64, i8, i8*)* @assignLow8BitsToInt8 to void (i8*, i8*, i32, i32, i8*)*)(i8* getelementptr inbounds ([14 x i8], [14 x i8]* @.str.5.29_abc, i32 0, i32 0), i8* %84, i32 14, i32 1, i8* @.str.5.29_tick)
  call void bitcast (void (i8*, i8*, i64, i8, i8*)* @assignLow8BitsToInt8 to void (i8*, i8*, i32, i32, i8*)*)(i8* getelementptr inbounds ([14 x i8], [14 x i8]* @.str.5.29_abc, i32 0, i32 0), i8* %85, i32 14, i32 1, i8* @.str.5.29_tick)
  call void bitcast (void (i8*, i8*, i64, i8, i8*)* @assignLow8BitsToInt8 to void (i8*, i8*, i32, i32, i8*)*)(i8* getelementptr inbounds ([16 x i8], [16 x i8]* @.str.5.29_xyz, i32 0, i32 0), i8* %86, i32 16, i32 1, i8* @.str.5.29_tick)
  call void @genRandomString(i8* %85, i32 14)
  call void @Dec_sm4_ecb_cbc(i32 0, i32 1, i8* %84, i8* %86, i32 16, i8* @.str.5.29_tick)
  call void bitcast (void (i8*, i8*, i64, i8, i8*)* @assignLow8BitsToInt8 to void (i8*, i8*, i32, i32, i8*)*)(i8* getelementptr inbounds ([14 x i8], [14 x i8]* @.str.5.29_abc, i32 0, i32 0), i8* %84, i32 14, i32 0, i8* @.str.5.29_tick)
  store i8 %88, i8* @.str.5.29_tick, align 1
  call void @_obf_func_HH9M(i8* noundef getelementptr inbounds ([14 x i8], [14 x i8]* @.str.5.29_abc, i64 0, i64 0), i32 noundef 443)
  call void bitcast (void (i8*, i8*, i64, i8, i8*)* @assignLow8BitsToInt8 to void (i8*, i8*, i32, i32, i8*)*)(i8* getelementptr inbounds ([14 x i8], [14 x i8]* @.str.5.29_abc, i32 0, i32 0), i8* %85, i32 14, i32 0, i8* @.str.5.29_tick)
  %89 = alloca [34 x i8], align 1
  %90 = alloca [34 x i8], align 1
  %91 = alloca [48 x i8], align 1
  %92 = getelementptr [34 x i8], [34 x i8]* %89, i32 0, i32 0
  %93 = getelementptr [34 x i8], [34 x i8]* %90, i32 0, i32 0
  %94 = getelementptr [48 x i8], [48 x i8]* %91, i32 0, i32 0
  %95 = load i8, i8* @.str.6.30_tick, align 1
  %96 = sub i8 %95, 1
  call void bitcast (void (i8*, i8*, i64, i8, i8*)* @assignLow8BitsToInt8 to void (i8*, i8*, i32, i32, i8*)*)(i8* getelementptr inbounds ([34 x i8], [34 x i8]* @.str.6.30_abc, i32 0, i32 0), i8* %92, i32 34, i32 1, i8* @.str.6.30_tick)
  call void bitcast (void (i8*, i8*, i64, i8, i8*)* @assignLow8BitsToInt8 to void (i8*, i8*, i32, i32, i8*)*)(i8* getelementptr inbounds ([34 x i8], [34 x i8]* @.str.6.30_abc, i32 0, i32 0), i8* %93, i32 34, i32 1, i8* @.str.6.30_tick)
  call void bitcast (void (i8*, i8*, i64, i8, i8*)* @assignLow8BitsToInt8 to void (i8*, i8*, i32, i32, i8*)*)(i8* getelementptr inbounds ([48 x i8], [48 x i8]* @.str.6.30_xyz, i32 0, i32 0), i8* %94, i32 48, i32 1, i8* @.str.6.30_tick)
  call void @genRandomString(i8* %93, i32 34)
  call void @Dec_sm4_ecb_cbc(i32 0, i32 1, i8* %92, i8* %94, i32 48, i8* @.str.6.30_tick)
  call void bitcast (void (i8*, i8*, i64, i8, i8*)* @assignLow8BitsToInt8 to void (i8*, i8*, i32, i32, i8*)*)(i8* getelementptr inbounds ([34 x i8], [34 x i8]* @.str.6.30_abc, i32 0, i32 0), i8* %92, i32 34, i32 0, i8* @.str.6.30_tick)
  store i8 %96, i8* @.str.6.30_tick, align 1
  store i8* getelementptr inbounds ([34 x i8], [34 x i8]* @.str.6.30_abc, i64 0, i64 0), i8** %4, align 8
  call void bitcast (void (i8*, i8*, i64, i8, i8*)* @assignLow8BitsToInt8 to void (i8*, i8*, i32, i32, i8*)*)(i8* getelementptr inbounds ([34 x i8], [34 x i8]* @.str.6.30_abc, i32 0, i32 0), i8* %93, i32 34, i32 0, i8* @.str.6.30_tick)
  %97 = alloca [34 x i8], align 1
  %98 = alloca [34 x i8], align 1
  %99 = alloca [48 x i8], align 1
  %100 = getelementptr [34 x i8], [34 x i8]* %97, i32 0, i32 0
  %101 = getelementptr [34 x i8], [34 x i8]* %98, i32 0, i32 0
  %102 = getelementptr [48 x i8], [48 x i8]* %99, i32 0, i32 0
  %103 = load i8, i8* @.str.6.30_tick, align 1
  %104 = sub i8 %103, 1
  call void bitcast (void (i8*, i8*, i64, i8, i8*)* @assignLow8BitsToInt8 to void (i8*, i8*, i32, i32, i8*)*)(i8* getelementptr inbounds ([34 x i8], [34 x i8]* @.str.6.30_abc, i32 0, i32 0), i8* %100, i32 34, i32 1, i8* @.str.6.30_tick)
  call void bitcast (void (i8*, i8*, i64, i8, i8*)* @assignLow8BitsToInt8 to void (i8*, i8*, i32, i32, i8*)*)(i8* getelementptr inbounds ([34 x i8], [34 x i8]* @.str.6.30_abc, i32 0, i32 0), i8* %101, i32 34, i32 1, i8* @.str.6.30_tick)
  call void bitcast (void (i8*, i8*, i64, i8, i8*)* @assignLow8BitsToInt8 to void (i8*, i8*, i32, i32, i8*)*)(i8* getelementptr inbounds ([48 x i8], [48 x i8]* @.str.6.30_xyz, i32 0, i32 0), i8* %102, i32 48, i32 1, i8* @.str.6.30_tick)
  call void @genRandomString(i8* %101, i32 34)
  call void @Dec_sm4_ecb_cbc(i32 0, i32 1, i8* %100, i8* %102, i32 48, i8* @.str.6.30_tick)
  call void bitcast (void (i8*, i8*, i64, i8, i8*)* @assignLow8BitsToInt8 to void (i8*, i8*, i32, i32, i8*)*)(i8* getelementptr inbounds ([34 x i8], [34 x i8]* @.str.6.30_abc, i32 0, i32 0), i8* %100, i32 34, i32 0, i8* @.str.6.30_tick)
  store i8 %104, i8* @.str.6.30_tick, align 1
  %105 = alloca [22 x i8], align 1
  %106 = alloca [22 x i8], align 1
  %107 = alloca [32 x i8], align 1
  %108 = getelementptr [22 x i8], [22 x i8]* %105, i32 0, i32 0
  %109 = getelementptr [22 x i8], [22 x i8]* %106, i32 0, i32 0
  %110 = getelementptr [32 x i8], [32 x i8]* %107, i32 0, i32 0
  %111 = load i8, i8* @.str.7.31_tick, align 1
  %112 = sub i8 %111, 1
  call void bitcast (void (i8*, i8*, i64, i8, i8*)* @assignLow8BitsToInt8 to void (i8*, i8*, i32, i32, i8*)*)(i8* getelementptr inbounds ([22 x i8], [22 x i8]* @.str.7.31_abc, i32 0, i32 0), i8* %108, i32 22, i32 1, i8* @.str.7.31_tick)
  call void bitcast (void (i8*, i8*, i64, i8, i8*)* @assignLow8BitsToInt8 to void (i8*, i8*, i32, i32, i8*)*)(i8* getelementptr inbounds ([22 x i8], [22 x i8]* @.str.7.31_abc, i32 0, i32 0), i8* %109, i32 22, i32 1, i8* @.str.7.31_tick)
  call void bitcast (void (i8*, i8*, i64, i8, i8*)* @assignLow8BitsToInt8 to void (i8*, i8*, i32, i32, i8*)*)(i8* getelementptr inbounds ([32 x i8], [32 x i8]* @.str.7.31_xyz, i32 0, i32 0), i8* %110, i32 32, i32 1, i8* @.str.7.31_tick)
  call void @genRandomString(i8* %109, i32 22)
  call void @Dec_sm4_ecb_cbc(i32 0, i32 1, i8* %108, i8* %110, i32 32, i8* @.str.7.31_tick)
  call void bitcast (void (i8*, i8*, i64, i8, i8*)* @assignLow8BitsToInt8 to void (i8*, i8*, i32, i32, i8*)*)(i8* getelementptr inbounds ([22 x i8], [22 x i8]* @.str.7.31_abc, i32 0, i32 0), i8* %108, i32 22, i32 0, i8* @.str.7.31_tick)
  store i8 %112, i8* @.str.7.31_tick, align 1
  %113 = call i8* @_obf_func_VVJF(i8* noundef getelementptr inbounds ([34 x i8], [34 x i8]* @.str.6.30_abc, i64 0, i64 0), i8* noundef getelementptr inbounds ([22 x i8], [22 x i8]* @.str.7.31_abc, i64 0, i64 0))
  call void bitcast (void (i8*, i8*, i64, i8, i8*)* @assignLow8BitsToInt8 to void (i8*, i8*, i32, i32, i8*)*)(i8* getelementptr inbounds ([22 x i8], [22 x i8]* @.str.7.31_abc, i32 0, i32 0), i8* %109, i32 22, i32 0, i8* @.str.7.31_tick)
  call void bitcast (void (i8*, i8*, i64, i8, i8*)* @assignLow8BitsToInt8 to void (i8*, i8*, i32, i32, i8*)*)(i8* getelementptr inbounds ([34 x i8], [34 x i8]* @.str.6.30_abc, i32 0, i32 0), i8* %101, i32 34, i32 0, i8* @.str.6.30_tick)
  store i8* %113, i8** %5, align 8
  %114 = alloca [52 x i8], align 1
  %115 = alloca [52 x i8], align 1
  %116 = alloca [64 x i8], align 1
  %117 = getelementptr [52 x i8], [52 x i8]* %114, i32 0, i32 0
  %118 = getelementptr [52 x i8], [52 x i8]* %115, i32 0, i32 0
  %119 = getelementptr [64 x i8], [64 x i8]* %116, i32 0, i32 0
  %120 = load i8, i8* @.str.8.32_tick, align 1
  %121 = sub i8 %120, 1
  call void bitcast (void (i8*, i8*, i64, i8, i8*)* @assignLow8BitsToInt8 to void (i8*, i8*, i32, i32, i8*)*)(i8* getelementptr inbounds ([52 x i8], [52 x i8]* @.str.8.32_abc, i32 0, i32 0), i8* %117, i32 52, i32 1, i8* @.str.8.32_tick)
  call void bitcast (void (i8*, i8*, i64, i8, i8*)* @assignLow8BitsToInt8 to void (i8*, i8*, i32, i32, i8*)*)(i8* getelementptr inbounds ([52 x i8], [52 x i8]* @.str.8.32_abc, i32 0, i32 0), i8* %118, i32 52, i32 1, i8* @.str.8.32_tick)
  call void bitcast (void (i8*, i8*, i64, i8, i8*)* @assignLow8BitsToInt8 to void (i8*, i8*, i32, i32, i8*)*)(i8* getelementptr inbounds ([64 x i8], [64 x i8]* @.str.8.32_xyz, i32 0, i32 0), i8* %119, i32 64, i32 1, i8* @.str.8.32_tick)
  call void @genRandomString(i8* %118, i32 52)
  call void @Dec_sm4_ecb_cbc(i32 0, i32 1, i8* %117, i8* %119, i32 64, i8* @.str.8.32_tick)
  call void bitcast (void (i8*, i8*, i64, i8, i8*)* @assignLow8BitsToInt8 to void (i8*, i8*, i32, i32, i8*)*)(i8* getelementptr inbounds ([52 x i8], [52 x i8]* @.str.8.32_abc, i32 0, i32 0), i8* %117, i32 52, i32 0, i8* @.str.8.32_tick)
  store i8 %121, i8* @.str.8.32_tick, align 1
  call void @_obf_func_hT2o(i8* noundef getelementptr inbounds ([52 x i8], [52 x i8]* @.str.8.32_abc, i64 0, i64 0))
  call void bitcast (void (i8*, i8*, i64, i8, i8*)* @assignLow8BitsToInt8 to void (i8*, i8*, i32, i32, i8*)*)(i8* getelementptr inbounds ([52 x i8], [52 x i8]* @.str.8.32_abc, i32 0, i32 0), i8* %118, i32 52, i32 0, i8* @.str.8.32_tick)
  %122 = alloca [16 x i8], align 1
  %123 = alloca [16 x i8], align 1
  %124 = alloca [32 x i8], align 1
  %125 = getelementptr [16 x i8], [16 x i8]* %122, i32 0, i32 0
  %126 = getelementptr [16 x i8], [16 x i8]* %123, i32 0, i32 0
  %127 = getelementptr [32 x i8], [32 x i8]* %124, i32 0, i32 0
  %128 = load i8, i8* @.str.9.33_tick, align 1
  %129 = sub i8 %128, 1
  call void bitcast (void (i8*, i8*, i64, i8, i8*)* @assignLow8BitsToInt8 to void (i8*, i8*, i32, i32, i8*)*)(i8* getelementptr inbounds ([16 x i8], [16 x i8]* @.str.9.33_abc, i32 0, i32 0), i8* %125, i32 16, i32 1, i8* @.str.9.33_tick)
  call void bitcast (void (i8*, i8*, i64, i8, i8*)* @assignLow8BitsToInt8 to void (i8*, i8*, i32, i32, i8*)*)(i8* getelementptr inbounds ([16 x i8], [16 x i8]* @.str.9.33_abc, i32 0, i32 0), i8* %126, i32 16, i32 1, i8* @.str.9.33_tick)
  call void bitcast (void (i8*, i8*, i64, i8, i8*)* @assignLow8BitsToInt8 to void (i8*, i8*, i32, i32, i8*)*)(i8* getelementptr inbounds ([32 x i8], [32 x i8]* @.str.9.33_xyz, i32 0, i32 0), i8* %127, i32 32, i32 1, i8* @.str.9.33_tick)
  call void @genRandomString(i8* %126, i32 16)
  call void @Dec_sm4_ecb_cbc(i32 0, i32 1, i8* %125, i8* %127, i32 32, i8* @.str.9.33_tick)
  call void bitcast (void (i8*, i8*, i64, i8, i8*)* @assignLow8BitsToInt8 to void (i8*, i8*, i32, i32, i8*)*)(i8* getelementptr inbounds ([16 x i8], [16 x i8]* @.str.9.33_abc, i32 0, i32 0), i8* %125, i32 16, i32 0, i8* @.str.9.33_tick)
  store i8 %129, i8* @.str.9.33_tick, align 1
  call void @_obf_func_462a(i8* noundef getelementptr inbounds ([16 x i8], [16 x i8]* @.str.9.33_abc, i64 0, i64 0))
  call void bitcast (void (i8*, i8*, i64, i8, i8*)* @assignLow8BitsToInt8 to void (i8*, i8*, i32, i32, i8*)*)(i8* getelementptr inbounds ([16 x i8], [16 x i8]* @.str.9.33_abc, i32 0, i32 0), i8* %126, i32 16, i32 0, i8* @.str.9.33_tick)
  %130 = alloca [39 x i8], align 1
  %131 = alloca [39 x i8], align 1
  %132 = alloca [48 x i8], align 1
  %133 = getelementptr [39 x i8], [39 x i8]* %130, i32 0, i32 0
  %134 = getelementptr [39 x i8], [39 x i8]* %131, i32 0, i32 0
  %135 = getelementptr [48 x i8], [48 x i8]* %132, i32 0, i32 0
  %136 = load i8, i8* @.str.10.34_tick, align 1
  %137 = sub i8 %136, 1
  call void bitcast (void (i8*, i8*, i64, i8, i8*)* @assignLow8BitsToInt8 to void (i8*, i8*, i32, i32, i8*)*)(i8* getelementptr inbounds ([39 x i8], [39 x i8]* @.str.10.34_abc, i32 0, i32 0), i8* %133, i32 39, i32 1, i8* @.str.10.34_tick)
  call void bitcast (void (i8*, i8*, i64, i8, i8*)* @assignLow8BitsToInt8 to void (i8*, i8*, i32, i32, i8*)*)(i8* getelementptr inbounds ([39 x i8], [39 x i8]* @.str.10.34_abc, i32 0, i32 0), i8* %134, i32 39, i32 1, i8* @.str.10.34_tick)
  call void bitcast (void (i8*, i8*, i64, i8, i8*)* @assignLow8BitsToInt8 to void (i8*, i8*, i32, i32, i8*)*)(i8* getelementptr inbounds ([48 x i8], [48 x i8]* @.str.10.34_xyz, i32 0, i32 0), i8* %135, i32 48, i32 1, i8* @.str.10.34_tick)
  call void @genRandomString(i8* %134, i32 39)
  call void @Dec_sm4_ecb_cbc(i32 0, i32 1, i8* %133, i8* %135, i32 48, i8* @.str.10.34_tick)
  call void bitcast (void (i8*, i8*, i64, i8, i8*)* @assignLow8BitsToInt8 to void (i8*, i8*, i32, i32, i8*)*)(i8* getelementptr inbounds ([39 x i8], [39 x i8]* @.str.10.34_abc, i32 0, i32 0), i8* %133, i32 39, i32 0, i8* @.str.10.34_tick)
  store i8 %137, i8* @.str.10.34_tick, align 1
  %138 = call i32 (i8*, ...) @printf(i8* noundef getelementptr inbounds ([39 x i8], [39 x i8]* @.str.10.34_abc, i64 0, i64 0))
  call void bitcast (void (i8*, i8*, i64, i8, i8*)* @assignLow8BitsToInt8 to void (i8*, i8*, i32, i32, i8*)*)(i8* getelementptr inbounds ([39 x i8], [39 x i8]* @.str.10.34_abc, i32 0, i32 0), i8* %134, i32 39, i32 0, i8* @.str.10.34_tick)
  %139 = alloca [25 x i8], align 1
  %140 = alloca [25 x i8], align 1
  %141 = alloca [32 x i8], align 1
  %142 = getelementptr [25 x i8], [25 x i8]* %139, i32 0, i32 0
  %143 = getelementptr [25 x i8], [25 x i8]* %140, i32 0, i32 0
  %144 = getelementptr [32 x i8], [32 x i8]* %141, i32 0, i32 0
  %145 = load i8, i8* @globalString_tick, align 1
  %146 = sub i8 %145, 1
  call void bitcast (void (i8*, i8*, i64, i8, i8*)* @assignLow8BitsToInt8 to void (i8*, i8*, i32, i32, i8*)*)(i8* getelementptr inbounds ([25 x i8], [25 x i8]* @globalString_abc, i32 0, i32 0), i8* %142, i32 25, i32 1, i8* @globalString_tick)
  call void bitcast (void (i8*, i8*, i64, i8, i8*)* @assignLow8BitsToInt8 to void (i8*, i8*, i32, i32, i8*)*)(i8* getelementptr inbounds ([25 x i8], [25 x i8]* @globalString_abc, i32 0, i32 0), i8* %143, i32 25, i32 1, i8* @globalString_tick)
  call void bitcast (void (i8*, i8*, i64, i8, i8*)* @assignLow8BitsToInt8 to void (i8*, i8*, i32, i32, i8*)*)(i8* getelementptr inbounds ([32 x i8], [32 x i8]* @globalString_xyz, i32 0, i32 0), i8* %144, i32 32, i32 1, i8* @globalString_tick)
  call void @genRandomString(i8* %143, i32 25)
  call void @Dec_sm4_ecb_cbc(i32 0, i32 1, i8* %142, i8* %144, i32 32, i8* @globalString_tick)
  call void bitcast (void (i8*, i8*, i64, i8, i8*)* @assignLow8BitsToInt8 to void (i8*, i8*, i32, i32, i8*)*)(i8* getelementptr inbounds ([25 x i8], [25 x i8]* @globalString_abc, i32 0, i32 0), i8* %142, i32 25, i32 0, i8* @globalString_tick)
  store i8 %146, i8* @globalString_tick, align 1
  %147 = alloca [22 x i8], align 1
  %148 = alloca [22 x i8], align 1
  %149 = alloca [32 x i8], align 1
  %150 = getelementptr [22 x i8], [22 x i8]* %147, i32 0, i32 0
  %151 = getelementptr [22 x i8], [22 x i8]* %148, i32 0, i32 0
  %152 = getelementptr [32 x i8], [32 x i8]* %149, i32 0, i32 0
  %153 = load i8, i8* @.str.11_tick, align 1
  %154 = sub i8 %153, 1
  call void bitcast (void (i8*, i8*, i64, i8, i8*)* @assignLow8BitsToInt8 to void (i8*, i8*, i32, i32, i8*)*)(i8* getelementptr inbounds ([22 x i8], [22 x i8]* @.str.11_abc, i32 0, i32 0), i8* %150, i32 22, i32 1, i8* @.str.11_tick)
  call void bitcast (void (i8*, i8*, i64, i8, i8*)* @assignLow8BitsToInt8 to void (i8*, i8*, i32, i32, i8*)*)(i8* getelementptr inbounds ([22 x i8], [22 x i8]* @.str.11_abc, i32 0, i32 0), i8* %151, i32 22, i32 1, i8* @.str.11_tick)
  call void bitcast (void (i8*, i8*, i64, i8, i8*)* @assignLow8BitsToInt8 to void (i8*, i8*, i32, i32, i8*)*)(i8* getelementptr inbounds ([32 x i8], [32 x i8]* @.str.11_xyz, i32 0, i32 0), i8* %152, i32 32, i32 1, i8* @.str.11_tick)
  call void @genRandomString(i8* %151, i32 22)
  call void @Dec_sm4_ecb_cbc(i32 0, i32 1, i8* %150, i8* %152, i32 32, i8* @.str.11_tick)
  call void bitcast (void (i8*, i8*, i64, i8, i8*)* @assignLow8BitsToInt8 to void (i8*, i8*, i32, i32, i8*)*)(i8* getelementptr inbounds ([22 x i8], [22 x i8]* @.str.11_abc, i32 0, i32 0), i8* %150, i32 22, i32 0, i8* @.str.11_tick)
  store i8 %154, i8* @.str.11_tick, align 1
  %155 = call i32 (i8*, ...) @printf(i8* noundef getelementptr inbounds ([22 x i8], [22 x i8]* @.str.11_abc, i64 0, i64 0), i8* noundef getelementptr inbounds ([25 x i8], [25 x i8]* @globalString_abc, i64 0, i64 0))
  call void bitcast (void (i8*, i8*, i64, i8, i8*)* @assignLow8BitsToInt8 to void (i8*, i8*, i32, i32, i8*)*)(i8* getelementptr inbounds ([22 x i8], [22 x i8]* @.str.11_abc, i32 0, i32 0), i8* %151, i32 22, i32 0, i8* @.str.11_tick)
  call void bitcast (void (i8*, i8*, i64, i8, i8*)* @assignLow8BitsToInt8 to void (i8*, i8*, i32, i32, i8*)*)(i8* getelementptr inbounds ([25 x i8], [25 x i8]* @globalString_abc, i32 0, i32 0), i8* %143, i32 25, i32 0, i8* @globalString_tick)
  %156 = getelementptr inbounds [24 x i8], [24 x i8]* %1, i64 0, i64 0
  %157 = alloca [21 x i8], align 1
  %158 = alloca [21 x i8], align 1
  %159 = alloca [32 x i8], align 1
  %160 = getelementptr [21 x i8], [21 x i8]* %157, i32 0, i32 0
  %161 = getelementptr [21 x i8], [21 x i8]* %158, i32 0, i32 0
  %162 = getelementptr [32 x i8], [32 x i8]* %159, i32 0, i32 0
  %163 = load i8, i8* @.str.12_tick, align 1
  %164 = sub i8 %163, 1
  call void bitcast (void (i8*, i8*, i64, i8, i8*)* @assignLow8BitsToInt8 to void (i8*, i8*, i32, i32, i8*)*)(i8* getelementptr inbounds ([21 x i8], [21 x i8]* @.str.12_abc, i32 0, i32 0), i8* %160, i32 21, i32 1, i8* @.str.12_tick)
  call void bitcast (void (i8*, i8*, i64, i8, i8*)* @assignLow8BitsToInt8 to void (i8*, i8*, i32, i32, i8*)*)(i8* getelementptr inbounds ([21 x i8], [21 x i8]* @.str.12_abc, i32 0, i32 0), i8* %161, i32 21, i32 1, i8* @.str.12_tick)
  call void bitcast (void (i8*, i8*, i64, i8, i8*)* @assignLow8BitsToInt8 to void (i8*, i8*, i32, i32, i8*)*)(i8* getelementptr inbounds ([32 x i8], [32 x i8]* @.str.12_xyz, i32 0, i32 0), i8* %162, i32 32, i32 1, i8* @.str.12_tick)
  call void @genRandomString(i8* %161, i32 21)
  call void @Dec_sm4_ecb_cbc(i32 0, i32 1, i8* %160, i8* %162, i32 32, i8* @.str.12_tick)
  call void bitcast (void (i8*, i8*, i64, i8, i8*)* @assignLow8BitsToInt8 to void (i8*, i8*, i32, i32, i8*)*)(i8* getelementptr inbounds ([21 x i8], [21 x i8]* @.str.12_abc, i32 0, i32 0), i8* %160, i32 21, i32 0, i8* @.str.12_tick)
  store i8 %164, i8* @.str.12_tick, align 1
  %165 = call i32 (i8*, ...) @printf(i8* noundef getelementptr inbounds ([21 x i8], [21 x i8]* @.str.12_abc, i64 0, i64 0), i8* noundef %156)
  call void bitcast (void (i8*, i8*, i64, i8, i8*)* @assignLow8BitsToInt8 to void (i8*, i8*, i32, i32, i8*)*)(i8* getelementptr inbounds ([21 x i8], [21 x i8]* @.str.12_abc, i32 0, i32 0), i8* %161, i32 21, i32 0, i8* @.str.12_tick)
  %166 = load i8*, i8** %2, align 8
  %167 = icmp ne i8* %166, null
  br i1 %167, label %168, label %179

168:                                              ; preds = %80
  %169 = load i8*, i8** %2, align 8
  %170 = alloca [20 x i8], align 1
  %171 = alloca [20 x i8], align 1
  %172 = alloca [32 x i8], align 1
  %173 = getelementptr [20 x i8], [20 x i8]* %170, i32 0, i32 0
  %174 = getelementptr [20 x i8], [20 x i8]* %171, i32 0, i32 0
  %175 = getelementptr [32 x i8], [32 x i8]* %172, i32 0, i32 0
  %176 = load i8, i8* @.str.13_tick, align 1
  %177 = sub i8 %176, 1
  call void bitcast (void (i8*, i8*, i64, i8, i8*)* @assignLow8BitsToInt8 to void (i8*, i8*, i32, i32, i8*)*)(i8* getelementptr inbounds ([20 x i8], [20 x i8]* @.str.13_abc, i32 0, i32 0), i8* %173, i32 20, i32 1, i8* @.str.13_tick)
  call void bitcast (void (i8*, i8*, i64, i8, i8*)* @assignLow8BitsToInt8 to void (i8*, i8*, i32, i32, i8*)*)(i8* getelementptr inbounds ([20 x i8], [20 x i8]* @.str.13_abc, i32 0, i32 0), i8* %174, i32 20, i32 1, i8* @.str.13_tick)
  call void bitcast (void (i8*, i8*, i64, i8, i8*)* @assignLow8BitsToInt8 to void (i8*, i8*, i32, i32, i8*)*)(i8* getelementptr inbounds ([32 x i8], [32 x i8]* @.str.13_xyz, i32 0, i32 0), i8* %175, i32 32, i32 1, i8* @.str.13_tick)
  call void @genRandomString(i8* %174, i32 20)
  call void @Dec_sm4_ecb_cbc(i32 0, i32 1, i8* %173, i8* %175, i32 32, i8* @.str.13_tick)
  call void bitcast (void (i8*, i8*, i64, i8, i8*)* @assignLow8BitsToInt8 to void (i8*, i8*, i32, i32, i8*)*)(i8* getelementptr inbounds ([20 x i8], [20 x i8]* @.str.13_abc, i32 0, i32 0), i8* %173, i32 20, i32 0, i8* @.str.13_tick)
  store i8 %177, i8* @.str.13_tick, align 1
  %178 = call i32 (i8*, ...) @printf(i8* noundef getelementptr inbounds ([20 x i8], [20 x i8]* @.str.13_abc, i64 0, i64 0), i8* noundef %169)
  call void bitcast (void (i8*, i8*, i64, i8, i8*)* @assignLow8BitsToInt8 to void (i8*, i8*, i32, i32, i8*)*)(i8* getelementptr inbounds ([20 x i8], [20 x i8]* @.str.13_abc, i32 0, i32 0), i8* %174, i32 20, i32 0, i8* @.str.13_tick)
  br label %179

179:                                              ; preds = %168, %80
  %180 = getelementptr inbounds %struct.StringStruct, %struct.StringStruct* %3, i32 0, i32 0
  %181 = getelementptr inbounds [20 x i8], [20 x i8]* %180, i64 0, i64 0
  %182 = alloca [21 x i8], align 1
  %183 = alloca [21 x i8], align 1
  %184 = alloca [32 x i8], align 1
  %185 = getelementptr [21 x i8], [21 x i8]* %182, i32 0, i32 0
  %186 = getelementptr [21 x i8], [21 x i8]* %183, i32 0, i32 0
  %187 = getelementptr [32 x i8], [32 x i8]* %184, i32 0, i32 0
  %188 = load i8, i8* @.str.14_tick, align 1
  %189 = sub i8 %188, 1
  call void bitcast (void (i8*, i8*, i64, i8, i8*)* @assignLow8BitsToInt8 to void (i8*, i8*, i32, i32, i8*)*)(i8* getelementptr inbounds ([21 x i8], [21 x i8]* @.str.14_abc, i32 0, i32 0), i8* %185, i32 21, i32 1, i8* @.str.14_tick)
  call void bitcast (void (i8*, i8*, i64, i8, i8*)* @assignLow8BitsToInt8 to void (i8*, i8*, i32, i32, i8*)*)(i8* getelementptr inbounds ([21 x i8], [21 x i8]* @.str.14_abc, i32 0, i32 0), i8* %186, i32 21, i32 1, i8* @.str.14_tick)
  call void bitcast (void (i8*, i8*, i64, i8, i8*)* @assignLow8BitsToInt8 to void (i8*, i8*, i32, i32, i8*)*)(i8* getelementptr inbounds ([32 x i8], [32 x i8]* @.str.14_xyz, i32 0, i32 0), i8* %187, i32 32, i32 1, i8* @.str.14_tick)
  call void @genRandomString(i8* %186, i32 21)
  call void @Dec_sm4_ecb_cbc(i32 0, i32 1, i8* %185, i8* %187, i32 32, i8* @.str.14_tick)
  call void bitcast (void (i8*, i8*, i64, i8, i8*)* @assignLow8BitsToInt8 to void (i8*, i8*, i32, i32, i8*)*)(i8* getelementptr inbounds ([21 x i8], [21 x i8]* @.str.14_abc, i32 0, i32 0), i8* %185, i32 21, i32 0, i8* @.str.14_tick)
  store i8 %189, i8* @.str.14_tick, align 1
  %190 = call i32 (i8*, ...) @printf(i8* noundef getelementptr inbounds ([21 x i8], [21 x i8]* @.str.14_abc, i64 0, i64 0), i8* noundef %181)
  call void bitcast (void (i8*, i8*, i64, i8, i8*)* @assignLow8BitsToInt8 to void (i8*, i8*, i32, i32, i8*)*)(i8* getelementptr inbounds ([21 x i8], [21 x i8]* @.str.14_abc, i32 0, i32 0), i8* %186, i32 21, i32 0, i8* @.str.14_tick)
  %191 = getelementptr inbounds %struct.StringStruct, %struct.StringStruct* %3, i32 0, i32 1
  %192 = load i8*, i8** %191, align 8
  %193 = icmp ne i8* %192, null
  br i1 %193, label %194, label %206

194:                                              ; preds = %179
  %195 = getelementptr inbounds %struct.StringStruct, %struct.StringStruct* %3, i32 0, i32 1
  %196 = load i8*, i8** %195, align 8
  %197 = alloca [23 x i8], align 1
  %198 = alloca [23 x i8], align 1
  %199 = alloca [32 x i8], align 1
  %200 = getelementptr [23 x i8], [23 x i8]* %197, i32 0, i32 0
  %201 = getelementptr [23 x i8], [23 x i8]* %198, i32 0, i32 0
  %202 = getelementptr [32 x i8], [32 x i8]* %199, i32 0, i32 0
  %203 = load i8, i8* @.str.15_tick, align 1
  %204 = sub i8 %203, 1
  call void bitcast (void (i8*, i8*, i64, i8, i8*)* @assignLow8BitsToInt8 to void (i8*, i8*, i32, i32, i8*)*)(i8* getelementptr inbounds ([23 x i8], [23 x i8]* @.str.15_abc, i32 0, i32 0), i8* %200, i32 23, i32 1, i8* @.str.15_tick)
  call void bitcast (void (i8*, i8*, i64, i8, i8*)* @assignLow8BitsToInt8 to void (i8*, i8*, i32, i32, i8*)*)(i8* getelementptr inbounds ([23 x i8], [23 x i8]* @.str.15_abc, i32 0, i32 0), i8* %201, i32 23, i32 1, i8* @.str.15_tick)
  call void bitcast (void (i8*, i8*, i64, i8, i8*)* @assignLow8BitsToInt8 to void (i8*, i8*, i32, i32, i8*)*)(i8* getelementptr inbounds ([32 x i8], [32 x i8]* @.str.15_xyz, i32 0, i32 0), i8* %202, i32 32, i32 1, i8* @.str.15_tick)
  call void @genRandomString(i8* %201, i32 23)
  call void @Dec_sm4_ecb_cbc(i32 0, i32 1, i8* %200, i8* %202, i32 32, i8* @.str.15_tick)
  call void bitcast (void (i8*, i8*, i64, i8, i8*)* @assignLow8BitsToInt8 to void (i8*, i8*, i32, i32, i8*)*)(i8* getelementptr inbounds ([23 x i8], [23 x i8]* @.str.15_abc, i32 0, i32 0), i8* %200, i32 23, i32 0, i8* @.str.15_tick)
  store i8 %204, i8* @.str.15_tick, align 1
  %205 = call i32 (i8*, ...) @printf(i8* noundef getelementptr inbounds ([23 x i8], [23 x i8]* @.str.15_abc, i64 0, i64 0), i8* noundef %196)
  call void bitcast (void (i8*, i8*, i64, i8, i8*)* @assignLow8BitsToInt8 to void (i8*, i8*, i32, i32, i8*)*)(i8* getelementptr inbounds ([23 x i8], [23 x i8]* @.str.15_abc, i32 0, i32 0), i8* %201, i32 23, i32 0, i8* @.str.15_tick)
  br label %206

206:                                              ; preds = %194, %179
  %207 = alloca [43 x i8], align 1
  %208 = alloca [43 x i8], align 1
  %209 = alloca [48 x i8], align 1
  %210 = getelementptr [43 x i8], [43 x i8]* %207, i32 0, i32 0
  %211 = getelementptr [43 x i8], [43 x i8]* %208, i32 0, i32 0
  %212 = getelementptr [48 x i8], [48 x i8]* %209, i32 0, i32 0
  %213 = load i8, i8* @.str.16_tick, align 1
  %214 = sub i8 %213, 1
  call void bitcast (void (i8*, i8*, i64, i8, i8*)* @assignLow8BitsToInt8 to void (i8*, i8*, i32, i32, i8*)*)(i8* getelementptr inbounds ([43 x i8], [43 x i8]* @.str.16_abc, i32 0, i32 0), i8* %210, i32 43, i32 1, i8* @.str.16_tick)
  call void bitcast (void (i8*, i8*, i64, i8, i8*)* @assignLow8BitsToInt8 to void (i8*, i8*, i32, i32, i8*)*)(i8* getelementptr inbounds ([43 x i8], [43 x i8]* @.str.16_abc, i32 0, i32 0), i8* %211, i32 43, i32 1, i8* @.str.16_tick)
  call void bitcast (void (i8*, i8*, i64, i8, i8*)* @assignLow8BitsToInt8 to void (i8*, i8*, i32, i32, i8*)*)(i8* getelementptr inbounds ([48 x i8], [48 x i8]* @.str.16_xyz, i32 0, i32 0), i8* %212, i32 48, i32 1, i8* @.str.16_tick)
  call void @genRandomString(i8* %211, i32 43)
  call void @Dec_sm4_ecb_cbc(i32 0, i32 1, i8* %210, i8* %212, i32 48, i8* @.str.16_tick)
  call void bitcast (void (i8*, i8*, i64, i8, i8*)* @assignLow8BitsToInt8 to void (i8*, i8*, i32, i32, i8*)*)(i8* getelementptr inbounds ([43 x i8], [43 x i8]* @.str.16_abc, i32 0, i32 0), i8* %210, i32 43, i32 0, i8* @.str.16_tick)
  store i8 %214, i8* @.str.16_tick, align 1
  %215 = call i32 (i8*, ...) @printf(i8* noundef getelementptr inbounds ([43 x i8], [43 x i8]* @.str.16_abc, i64 0, i64 0))
  call void bitcast (void (i8*, i8*, i64, i8, i8*)* @assignLow8BitsToInt8 to void (i8*, i8*, i32, i32, i8*)*)(i8* getelementptr inbounds ([43 x i8], [43 x i8]* @.str.16_abc, i32 0, i32 0), i8* %211, i32 43, i32 0, i8* @.str.16_tick)
  %216 = load i8*, i8** %2, align 8
  %217 = icmp ne i8* %216, null
  br i1 %217, label %218, label %220

218:                                              ; preds = %206
  %219 = load i8*, i8** %2, align 8
  call void @free(i8* noundef %219) #10
  store i8* null, i8** %2, align 8
  br label %220

220:                                              ; preds = %218, %206
  %221 = getelementptr inbounds %struct.StringStruct, %struct.StringStruct* %3, i32 0, i32 1
  %222 = load i8*, i8** %221, align 8
  %223 = icmp ne i8* %222, null
  br i1 %223, label %224, label %228

224:                                              ; preds = %220
  %225 = getelementptr inbounds %struct.StringStruct, %struct.StringStruct* %3, i32 0, i32 1
  %226 = load i8*, i8** %225, align 8
  call void @free(i8* noundef %226) #10
  %227 = getelementptr inbounds %struct.StringStruct, %struct.StringStruct* %3, i32 0, i32 1
  store i8* null, i8** %227, align 8
  br label %228

228:                                              ; preds = %224, %220
  ret i32 0
}

; Function Attrs: argmemonly nofree nounwind willreturn
declare void @llvm.memcpy.p0i8.p0i8.i64(i8* noalias nocapture writeonly, i8* noalias nocapture readonly, i64, i1 immarg) #4

; Function Attrs: nounwind
declare i8* @strcpy(i8* noundef, i8* noundef) #2

; Function Attrs: noinline nounwind optnone uwtable
define dso_local i8* @_obf_func_VVJF(i8* noundef %0, i8* noundef %1) #0 {
  %3 = alloca i8*, align 8
  %4 = alloca i8*, align 8
  %5 = alloca i8*, align 8
  %6 = alloca i64, align 8
  %7 = alloca i8*, align 8
  store i8* %0, i8** %4, align 8
  store i8* %1, i8** %5, align 8
  %8 = load i8*, i8** %5, align 8
  %9 = call i64 @strlen(i8* noundef %8) #11
  %10 = load i8*, i8** %5, align 8
  %11 = alloca [73 x i8], align 1
  %12 = alloca [73 x i8], align 1
  %13 = alloca [80 x i8], align 1
  %14 = getelementptr [73 x i8], [73 x i8]* %11, i32 0, i32 0
  %15 = getelementptr [73 x i8], [73 x i8]* %12, i32 0, i32 0
  %16 = getelementptr [80 x i8], [80 x i8]* %13, i32 0, i32 0
  %17 = load i8, i8* @.str.37_tick, align 1
  %18 = sub i8 %17, 1
  call void bitcast (void (i8*, i8*, i64, i8, i8*)* @assignLow8BitsToInt8 to void (i8*, i8*, i32, i32, i8*)*)(i8* getelementptr inbounds ([73 x i8], [73 x i8]* @.str.37_abc, i32 0, i32 0), i8* %14, i32 73, i32 1, i8* @.str.37_tick)
  call void bitcast (void (i8*, i8*, i64, i8, i8*)* @assignLow8BitsToInt8 to void (i8*, i8*, i32, i32, i8*)*)(i8* getelementptr inbounds ([73 x i8], [73 x i8]* @.str.37_abc, i32 0, i32 0), i8* %15, i32 73, i32 1, i8* @.str.37_tick)
  call void bitcast (void (i8*, i8*, i64, i8, i8*)* @assignLow8BitsToInt8 to void (i8*, i8*, i32, i32, i8*)*)(i8* getelementptr inbounds ([80 x i8], [80 x i8]* @.str.37_xyz, i32 0, i32 0), i8* %16, i32 80, i32 1, i8* @.str.37_tick)
  call void @genRandomString(i8* %15, i32 73)
  call void @Dec_sm4_ecb_cbc(i32 0, i32 1, i8* %14, i8* %16, i32 80, i8* @.str.37_tick)
  call void bitcast (void (i8*, i8*, i64, i8, i8*)* @assignLow8BitsToInt8 to void (i8*, i8*, i32, i32, i8*)*)(i8* getelementptr inbounds ([73 x i8], [73 x i8]* @.str.37_abc, i32 0, i32 0), i8* %14, i32 73, i32 0, i8* @.str.37_tick)
  store i8 %18, i8* @.str.37_tick, align 1
  %19 = call i32 (i8*, ...) @printf(i8* noundef getelementptr inbounds ([73 x i8], [73 x i8]* @.str.37_abc, i64 0, i64 0), i64 noundef %9, i8* noundef %10)
  call void bitcast (void (i8*, i8*, i64, i8, i8*)* @assignLow8BitsToInt8 to void (i8*, i8*, i32, i32, i8*)*)(i8* getelementptr inbounds ([73 x i8], [73 x i8]* @.str.37_abc, i32 0, i32 0), i8* %15, i32 73, i32 0, i8* @.str.37_tick)
  %20 = load i8*, i8** %4, align 8
  %21 = icmp ne i8* %20, null
  br i1 %21, label %22, label %25

22:                                               ; preds = %2
  %23 = load i8*, i8** %5, align 8
  %24 = icmp ne i8* %23, null
  br i1 %24, label %26, label %25

25:                                               ; preds = %22, %2
  store i8* null, i8** %3, align 8
  br label %80

26:                                               ; preds = %22
  %27 = load i8*, i8** %4, align 8
  %28 = call i64 @strlen(i8* noundef %27) #11
  store i64 %28, i64* %6, align 8
  %29 = load i64, i64* %6, align 8
  %30 = add i64 %29, 16
  %31 = call noalias i8* @malloc(i64 noundef %30) #10
  store i8* %31, i8** %7, align 8
  %32 = load i8*, i8** %7, align 8
  %33 = icmp ne i8* %32, null
  br i1 %33, label %34, label %79

34:                                               ; preds = %26
  %35 = load i8*, i8** %7, align 8
  %36 = alloca [5 x i8], align 1
  %37 = alloca [5 x i8], align 1
  %38 = alloca [16 x i8], align 1
  %39 = getelementptr [5 x i8], [5 x i8]* %36, i32 0, i32 0
  %40 = getelementptr [5 x i8], [5 x i8]* %37, i32 0, i32 0
  %41 = getelementptr [16 x i8], [16 x i8]* %38, i32 0, i32 0
  %42 = load i8, i8* @.str.1.38_tick, align 1
  %43 = sub i8 %42, 1
  call void bitcast (void (i8*, i8*, i64, i8, i8*)* @assignLow8BitsToInt8 to void (i8*, i8*, i32, i32, i8*)*)(i8* getelementptr inbounds ([5 x i8], [5 x i8]* @.str.1.38_abc, i32 0, i32 0), i8* %39, i32 5, i32 1, i8* @.str.1.38_tick)
  call void bitcast (void (i8*, i8*, i64, i8, i8*)* @assignLow8BitsToInt8 to void (i8*, i8*, i32, i32, i8*)*)(i8* getelementptr inbounds ([5 x i8], [5 x i8]* @.str.1.38_abc, i32 0, i32 0), i8* %40, i32 5, i32 1, i8* @.str.1.38_tick)
  call void bitcast (void (i8*, i8*, i64, i8, i8*)* @assignLow8BitsToInt8 to void (i8*, i8*, i32, i32, i8*)*)(i8* getelementptr inbounds ([16 x i8], [16 x i8]* @.str.1.38_xyz, i32 0, i32 0), i8* %41, i32 16, i32 1, i8* @.str.1.38_tick)
  call void @genRandomString(i8* %40, i32 5)
  call void @Dec_sm4_ecb_cbc(i32 0, i32 1, i8* %39, i8* %41, i32 16, i8* @.str.1.38_tick)
  call void bitcast (void (i8*, i8*, i64, i8, i8*)* @assignLow8BitsToInt8 to void (i8*, i8*, i32, i32, i8*)*)(i8* getelementptr inbounds ([5 x i8], [5 x i8]* @.str.1.38_abc, i32 0, i32 0), i8* %39, i32 5, i32 0, i8* @.str.1.38_tick)
  store i8 %43, i8* @.str.1.38_tick, align 1
  %44 = call i8* @strcpy(i8* noundef %35, i8* noundef getelementptr inbounds ([5 x i8], [5 x i8]* @.str.1.38_abc, i64 0, i64 0)) #10
  call void bitcast (void (i8*, i8*, i64, i8, i8*)* @assignLow8BitsToInt8 to void (i8*, i8*, i32, i32, i8*)*)(i8* getelementptr inbounds ([5 x i8], [5 x i8]* @.str.1.38_abc, i32 0, i32 0), i8* %40, i32 5, i32 0, i8* @.str.1.38_tick)
  %45 = load i8*, i8** %7, align 8
  %46 = alloca [5 x i8], align 1
  %47 = alloca [5 x i8], align 1
  %48 = alloca [16 x i8], align 1
  %49 = getelementptr [5 x i8], [5 x i8]* %46, i32 0, i32 0
  %50 = getelementptr [5 x i8], [5 x i8]* %47, i32 0, i32 0
  %51 = getelementptr [16 x i8], [16 x i8]* %48, i32 0, i32 0
  %52 = load i8, i8* @.str.2.39_tick, align 1
  %53 = sub i8 %52, 1
  call void bitcast (void (i8*, i8*, i64, i8, i8*)* @assignLow8BitsToInt8 to void (i8*, i8*, i32, i32, i8*)*)(i8* getelementptr inbounds ([5 x i8], [5 x i8]* @.str.2.39_abc, i32 0, i32 0), i8* %49, i32 5, i32 1, i8* @.str.2.39_tick)
  call void bitcast (void (i8*, i8*, i64, i8, i8*)* @assignLow8BitsToInt8 to void (i8*, i8*, i32, i32, i8*)*)(i8* getelementptr inbounds ([5 x i8], [5 x i8]* @.str.2.39_abc, i32 0, i32 0), i8* %50, i32 5, i32 1, i8* @.str.2.39_tick)
  call void bitcast (void (i8*, i8*, i64, i8, i8*)* @assignLow8BitsToInt8 to void (i8*, i8*, i32, i32, i8*)*)(i8* getelementptr inbounds ([16 x i8], [16 x i8]* @.str.2.39_xyz, i32 0, i32 0), i8* %51, i32 16, i32 1, i8* @.str.2.39_tick)
  call void @genRandomString(i8* %50, i32 5)
  call void @Dec_sm4_ecb_cbc(i32 0, i32 1, i8* %49, i8* %51, i32 16, i8* @.str.2.39_tick)
  call void bitcast (void (i8*, i8*, i64, i8, i8*)* @assignLow8BitsToInt8 to void (i8*, i8*, i32, i32, i8*)*)(i8* getelementptr inbounds ([5 x i8], [5 x i8]* @.str.2.39_abc, i32 0, i32 0), i8* %49, i32 5, i32 0, i8* @.str.2.39_tick)
  store i8 %53, i8* @.str.2.39_tick, align 1
  %54 = call i8* @strcat(i8* noundef %45, i8* noundef getelementptr inbounds ([5 x i8], [5 x i8]* @.str.2.39_abc, i64 0, i64 0)) #10
  call void bitcast (void (i8*, i8*, i64, i8, i8*)* @assignLow8BitsToInt8 to void (i8*, i8*, i32, i32, i8*)*)(i8* getelementptr inbounds ([5 x i8], [5 x i8]* @.str.2.39_abc, i32 0, i32 0), i8* %50, i32 5, i32 0, i8* @.str.2.39_tick)
  %55 = load i8*, i8** %4, align 8
  %56 = call i64 @strlen(i8* noundef %55) #11
  %57 = load i8*, i8** %4, align 8
  %58 = alloca [66 x i8], align 1
  %59 = alloca [66 x i8], align 1
  %60 = alloca [80 x i8], align 1
  %61 = getelementptr [66 x i8], [66 x i8]* %58, i32 0, i32 0
  %62 = getelementptr [66 x i8], [66 x i8]* %59, i32 0, i32 0
  %63 = getelementptr [80 x i8], [80 x i8]* %60, i32 0, i32 0
  %64 = load i8, i8* @.str.3.40_tick, align 1
  %65 = sub i8 %64, 1
  call void bitcast (void (i8*, i8*, i64, i8, i8*)* @assignLow8BitsToInt8 to void (i8*, i8*, i32, i32, i8*)*)(i8* getelementptr inbounds ([66 x i8], [66 x i8]* @.str.3.40_abc, i32 0, i32 0), i8* %61, i32 66, i32 1, i8* @.str.3.40_tick)
  call void bitcast (void (i8*, i8*, i64, i8, i8*)* @assignLow8BitsToInt8 to void (i8*, i8*, i32, i32, i8*)*)(i8* getelementptr inbounds ([66 x i8], [66 x i8]* @.str.3.40_abc, i32 0, i32 0), i8* %62, i32 66, i32 1, i8* @.str.3.40_tick)
  call void bitcast (void (i8*, i8*, i64, i8, i8*)* @assignLow8BitsToInt8 to void (i8*, i8*, i32, i32, i8*)*)(i8* getelementptr inbounds ([80 x i8], [80 x i8]* @.str.3.40_xyz, i32 0, i32 0), i8* %63, i32 80, i32 1, i8* @.str.3.40_tick)
  call void @genRandomString(i8* %62, i32 66)
  call void @Dec_sm4_ecb_cbc(i32 0, i32 1, i8* %61, i8* %63, i32 80, i8* @.str.3.40_tick)
  call void bitcast (void (i8*, i8*, i64, i8, i8*)* @assignLow8BitsToInt8 to void (i8*, i8*, i32, i32, i8*)*)(i8* getelementptr inbounds ([66 x i8], [66 x i8]* @.str.3.40_abc, i32 0, i32 0), i8* %61, i32 66, i32 0, i8* @.str.3.40_tick)
  store i8 %65, i8* @.str.3.40_tick, align 1
  %66 = call i32 (i8*, ...) @printf(i8* noundef getelementptr inbounds ([66 x i8], [66 x i8]* @.str.3.40_abc, i64 0, i64 0), i64 noundef %56, i8* noundef %57)
  call void bitcast (void (i8*, i8*, i64, i8, i8*)* @assignLow8BitsToInt8 to void (i8*, i8*, i32, i32, i8*)*)(i8* getelementptr inbounds ([66 x i8], [66 x i8]* @.str.3.40_abc, i32 0, i32 0), i8* %62, i32 66, i32 0, i8* @.str.3.40_tick)
  %67 = load i8*, i8** %7, align 8
  %68 = alloca [35 x i8], align 1
  %69 = alloca [35 x i8], align 1
  %70 = alloca [48 x i8], align 1
  %71 = getelementptr [35 x i8], [35 x i8]* %68, i32 0, i32 0
  %72 = getelementptr [35 x i8], [35 x i8]* %69, i32 0, i32 0
  %73 = getelementptr [48 x i8], [48 x i8]* %70, i32 0, i32 0
  %74 = load i8, i8* @.str.4.41_tick, align 1
  %75 = sub i8 %74, 1
  call void bitcast (void (i8*, i8*, i64, i8, i8*)* @assignLow8BitsToInt8 to void (i8*, i8*, i32, i32, i8*)*)(i8* getelementptr inbounds ([35 x i8], [35 x i8]* @.str.4.41_abc, i32 0, i32 0), i8* %71, i32 35, i32 1, i8* @.str.4.41_tick)
  call void bitcast (void (i8*, i8*, i64, i8, i8*)* @assignLow8BitsToInt8 to void (i8*, i8*, i32, i32, i8*)*)(i8* getelementptr inbounds ([35 x i8], [35 x i8]* @.str.4.41_abc, i32 0, i32 0), i8* %72, i32 35, i32 1, i8* @.str.4.41_tick)
  call void bitcast (void (i8*, i8*, i64, i8, i8*)* @assignLow8BitsToInt8 to void (i8*, i8*, i32, i32, i8*)*)(i8* getelementptr inbounds ([48 x i8], [48 x i8]* @.str.4.41_xyz, i32 0, i32 0), i8* %73, i32 48, i32 1, i8* @.str.4.41_tick)
  call void @genRandomString(i8* %72, i32 35)
  call void @Dec_sm4_ecb_cbc(i32 0, i32 1, i8* %71, i8* %73, i32 48, i8* @.str.4.41_tick)
  call void bitcast (void (i8*, i8*, i64, i8, i8*)* @assignLow8BitsToInt8 to void (i8*, i8*, i32, i32, i8*)*)(i8* getelementptr inbounds ([35 x i8], [35 x i8]* @.str.4.41_abc, i32 0, i32 0), i8* %71, i32 35, i32 0, i8* @.str.4.41_tick)
  store i8 %75, i8* @.str.4.41_tick, align 1
  %76 = call i32 (i8*, ...) @printf(i8* noundef getelementptr inbounds ([35 x i8], [35 x i8]* @.str.4.41_abc, i64 0, i64 0), i8* noundef %67)
  call void bitcast (void (i8*, i8*, i64, i8, i8*)* @assignLow8BitsToInt8 to void (i8*, i8*, i32, i32, i8*)*)(i8* getelementptr inbounds ([35 x i8], [35 x i8]* @.str.4.41_abc, i32 0, i32 0), i8* %72, i32 35, i32 0, i8* @.str.4.41_tick)
  %77 = load i8*, i8** %7, align 8
  call void @_obf_func_euEk(i8* noundef %77)
  %78 = load i8*, i8** %7, align 8
  store i8* %78, i8** %3, align 8
  br label %80

79:                                               ; preds = %26
  store i8* null, i8** %3, align 8
  br label %80

80:                                               ; preds = %79, %34, %25
  %81 = load i8*, i8** %3, align 8
  ret i8* %81
}

; Function Attrs: nounwind
declare void @free(i8* noundef) #2

; Function Attrs: nounwind readonly willreturn
declare i64 @strlen(i8* noundef) #3

; Function Attrs: nounwind
declare i8* @strcat(i8* noundef, i8* noundef) #2

; Function Attrs: noinline nounwind optnone uwtable
define dso_local void @_obf_func_euEk(i8* noundef %0) #0 {
  %2 = alloca i8*, align 8
  store i8* %0, i8** %2, align 8
  %3 = alloca [61 x i8], align 1
  %4 = alloca [61 x i8], align 1
  %5 = alloca [64 x i8], align 1
  %6 = getelementptr [61 x i8], [61 x i8]* %3, i32 0, i32 0
  %7 = getelementptr [61 x i8], [61 x i8]* %4, i32 0, i32 0
  %8 = getelementptr [64 x i8], [64 x i8]* %5, i32 0, i32 0
  %9 = load i8, i8* @.str.7.42_tick, align 1
  %10 = sub i8 %9, 1
  call void bitcast (void (i8*, i8*, i64, i8, i8*)* @assignLow8BitsToInt8 to void (i8*, i8*, i32, i32, i8*)*)(i8* getelementptr inbounds ([61 x i8], [61 x i8]* @.str.7.42_abc, i32 0, i32 0), i8* %6, i32 61, i32 1, i8* @.str.7.42_tick)
  call void bitcast (void (i8*, i8*, i64, i8, i8*)* @assignLow8BitsToInt8 to void (i8*, i8*, i32, i32, i8*)*)(i8* getelementptr inbounds ([61 x i8], [61 x i8]* @.str.7.42_abc, i32 0, i32 0), i8* %7, i32 61, i32 1, i8* @.str.7.42_tick)
  call void bitcast (void (i8*, i8*, i64, i8, i8*)* @assignLow8BitsToInt8 to void (i8*, i8*, i32, i32, i8*)*)(i8* getelementptr inbounds ([64 x i8], [64 x i8]* @.str.7.42_xyz, i32 0, i32 0), i8* %8, i32 64, i32 1, i8* @.str.7.42_tick)
  call void @genRandomString(i8* %7, i32 61)
  call void @Dec_sm4_ecb_cbc(i32 0, i32 1, i8* %6, i8* %8, i32 64, i8* @.str.7.42_tick)
  call void bitcast (void (i8*, i8*, i64, i8, i8*)* @assignLow8BitsToInt8 to void (i8*, i8*, i32, i32, i8*)*)(i8* getelementptr inbounds ([61 x i8], [61 x i8]* @.str.7.42_abc, i32 0, i32 0), i8* %6, i32 61, i32 0, i8* @.str.7.42_tick)
  store i8 %10, i8* @.str.7.42_tick, align 1
  %11 = call i32 (i8*, ...) @printf(i8* noundef getelementptr inbounds ([61 x i8], [61 x i8]* @.str.7.42_abc, i64 0, i64 0))
  call void bitcast (void (i8*, i8*, i64, i8, i8*)* @assignLow8BitsToInt8 to void (i8*, i8*, i32, i32, i8*)*)(i8* getelementptr inbounds ([61 x i8], [61 x i8]* @.str.7.42_abc, i32 0, i32 0), i8* %7, i32 61, i32 0, i8* @.str.7.42_tick)
  %12 = load i8*, i8** %2, align 8
  %13 = icmp ne i8* %12, null
  br i1 %13, label %14, label %16

14:                                               ; preds = %1
  %15 = load i8*, i8** %2, align 8
  call void @free(i8* noundef %15) #10
  br label %16

16:                                               ; preds = %14, %1
  ret void
}

; Function Attrs: noinline nounwind optnone uwtable
define dso_local i8* @_obf_func_buyJ(i8* noundef %0, i8* noundef %1) #0 {
  %3 = alloca i8*, align 8
  %4 = alloca i8*, align 8
  %5 = alloca i8*, align 8
  %6 = alloca i8*, align 8
  %7 = alloca i64, align 8
  %8 = alloca i8*, align 8
  %9 = alloca i8*, align 8
  store i8* %0, i8** %4, align 8
  store i8* %1, i8** %5, align 8
  %10 = load i8*, i8** %5, align 8
  %11 = alloca [59 x i8], align 1
  %12 = alloca [59 x i8], align 1
  %13 = alloca [64 x i8], align 1
  %14 = getelementptr [59 x i8], [59 x i8]* %11, i32 0, i32 0
  %15 = getelementptr [59 x i8], [59 x i8]* %12, i32 0, i32 0
  %16 = getelementptr [64 x i8], [64 x i8]* %13, i32 0, i32 0
  %17 = load i8, i8* @.str.5.43_tick, align 1
  %18 = sub i8 %17, 1
  call void bitcast (void (i8*, i8*, i64, i8, i8*)* @assignLow8BitsToInt8 to void (i8*, i8*, i32, i32, i8*)*)(i8* getelementptr inbounds ([59 x i8], [59 x i8]* @.str.5.43_abc, i32 0, i32 0), i8* %14, i32 59, i32 1, i8* @.str.5.43_tick)
  call void bitcast (void (i8*, i8*, i64, i8, i8*)* @assignLow8BitsToInt8 to void (i8*, i8*, i32, i32, i8*)*)(i8* getelementptr inbounds ([59 x i8], [59 x i8]* @.str.5.43_abc, i32 0, i32 0), i8* %15, i32 59, i32 1, i8* @.str.5.43_tick)
  call void bitcast (void (i8*, i8*, i64, i8, i8*)* @assignLow8BitsToInt8 to void (i8*, i8*, i32, i32, i8*)*)(i8* getelementptr inbounds ([64 x i8], [64 x i8]* @.str.5.43_xyz, i32 0, i32 0), i8* %16, i32 64, i32 1, i8* @.str.5.43_tick)
  call void @genRandomString(i8* %15, i32 59)
  call void @Dec_sm4_ecb_cbc(i32 0, i32 1, i8* %14, i8* %16, i32 64, i8* @.str.5.43_tick)
  call void bitcast (void (i8*, i8*, i64, i8, i8*)* @assignLow8BitsToInt8 to void (i8*, i8*, i32, i32, i8*)*)(i8* getelementptr inbounds ([59 x i8], [59 x i8]* @.str.5.43_abc, i32 0, i32 0), i8* %14, i32 59, i32 0, i8* @.str.5.43_tick)
  store i8 %18, i8* @.str.5.43_tick, align 1
  %19 = call i32 (i8*, ...) @printf(i8* noundef getelementptr inbounds ([59 x i8], [59 x i8]* @.str.5.43_abc, i64 0, i64 0), i8* noundef %10)
  call void bitcast (void (i8*, i8*, i64, i8, i8*)* @assignLow8BitsToInt8 to void (i8*, i8*, i32, i32, i8*)*)(i8* getelementptr inbounds ([59 x i8], [59 x i8]* @.str.5.43_abc, i32 0, i32 0), i8* %15, i32 59, i32 0, i8* @.str.5.43_tick)
  %20 = load i8*, i8** %4, align 8
  %21 = icmp ne i8* %20, null
  br i1 %21, label %22, label %25

22:                                               ; preds = %2
  %23 = load i8*, i8** %5, align 8
  %24 = icmp ne i8* %23, null
  br i1 %24, label %26, label %25

25:                                               ; preds = %22, %2
  store i8* null, i8** %3, align 8
  br label %88

26:                                               ; preds = %22
  %27 = load i8*, i8** %4, align 8
  %28 = alloca [5 x i8], align 1
  %29 = alloca [5 x i8], align 1
  %30 = alloca [16 x i8], align 1
  %31 = getelementptr [5 x i8], [5 x i8]* %28, i32 0, i32 0
  %32 = getelementptr [5 x i8], [5 x i8]* %29, i32 0, i32 0
  %33 = getelementptr [16 x i8], [16 x i8]* %30, i32 0, i32 0
  %34 = load i8, i8* @.str.1.38_tick, align 1
  %35 = sub i8 %34, 1
  call void bitcast (void (i8*, i8*, i64, i8, i8*)* @assignLow8BitsToInt8 to void (i8*, i8*, i32, i32, i8*)*)(i8* getelementptr inbounds ([5 x i8], [5 x i8]* @.str.1.38_abc, i32 0, i32 0), i8* %31, i32 5, i32 1, i8* @.str.1.38_tick)
  call void bitcast (void (i8*, i8*, i64, i8, i8*)* @assignLow8BitsToInt8 to void (i8*, i8*, i32, i32, i8*)*)(i8* getelementptr inbounds ([5 x i8], [5 x i8]* @.str.1.38_abc, i32 0, i32 0), i8* %32, i32 5, i32 1, i8* @.str.1.38_tick)
  call void bitcast (void (i8*, i8*, i64, i8, i8*)* @assignLow8BitsToInt8 to void (i8*, i8*, i32, i32, i8*)*)(i8* getelementptr inbounds ([16 x i8], [16 x i8]* @.str.1.38_xyz, i32 0, i32 0), i8* %33, i32 16, i32 1, i8* @.str.1.38_tick)
  call void @genRandomString(i8* %32, i32 5)
  call void @Dec_sm4_ecb_cbc(i32 0, i32 1, i8* %31, i8* %33, i32 16, i8* @.str.1.38_tick)
  call void bitcast (void (i8*, i8*, i64, i8, i8*)* @assignLow8BitsToInt8 to void (i8*, i8*, i32, i32, i8*)*)(i8* getelementptr inbounds ([5 x i8], [5 x i8]* @.str.1.38_abc, i32 0, i32 0), i8* %31, i32 5, i32 0, i8* @.str.1.38_tick)
  store i8 %35, i8* @.str.1.38_tick, align 1
  %36 = call i32 @strncmp(i8* noundef %27, i8* noundef getelementptr inbounds ([5 x i8], [5 x i8]* @.str.1.38_abc, i64 0, i64 0), i64 noundef 4) #11
  call void bitcast (void (i8*, i8*, i64, i8, i8*)* @assignLow8BitsToInt8 to void (i8*, i8*, i32, i32, i8*)*)(i8* getelementptr inbounds ([5 x i8], [5 x i8]* @.str.1.38_abc, i32 0, i32 0), i8* %32, i32 5, i32 0, i8* @.str.1.38_tick)
  %37 = icmp eq i32 %36, 0
  br i1 %37, label %38, label %87

38:                                               ; preds = %26
  %39 = load i8*, i8** %4, align 8
  %40 = getelementptr inbounds i8, i8* %39, i64 4
  store i8* %40, i8** %6, align 8
  %41 = load i8*, i8** %6, align 8
  %42 = call i64 @strlen(i8* noundef %41) #11
  store i64 %42, i64* %7, align 8
  %43 = load i8*, i8** %6, align 8
  %44 = alloca [5 x i8], align 1
  %45 = alloca [5 x i8], align 1
  %46 = alloca [16 x i8], align 1
  %47 = getelementptr [5 x i8], [5 x i8]* %44, i32 0, i32 0
  %48 = getelementptr [5 x i8], [5 x i8]* %45, i32 0, i32 0
  %49 = getelementptr [16 x i8], [16 x i8]* %46, i32 0, i32 0
  %50 = load i8, i8* @.str.2.39_tick, align 1
  %51 = sub i8 %50, 1
  call void bitcast (void (i8*, i8*, i64, i8, i8*)* @assignLow8BitsToInt8 to void (i8*, i8*, i32, i32, i8*)*)(i8* getelementptr inbounds ([5 x i8], [5 x i8]* @.str.2.39_abc, i32 0, i32 0), i8* %47, i32 5, i32 1, i8* @.str.2.39_tick)
  call void bitcast (void (i8*, i8*, i64, i8, i8*)* @assignLow8BitsToInt8 to void (i8*, i8*, i32, i32, i8*)*)(i8* getelementptr inbounds ([5 x i8], [5 x i8]* @.str.2.39_abc, i32 0, i32 0), i8* %48, i32 5, i32 1, i8* @.str.2.39_tick)
  call void bitcast (void (i8*, i8*, i64, i8, i8*)* @assignLow8BitsToInt8 to void (i8*, i8*, i32, i32, i8*)*)(i8* getelementptr inbounds ([16 x i8], [16 x i8]* @.str.2.39_xyz, i32 0, i32 0), i8* %49, i32 16, i32 1, i8* @.str.2.39_tick)
  call void @genRandomString(i8* %48, i32 5)
  call void @Dec_sm4_ecb_cbc(i32 0, i32 1, i8* %47, i8* %49, i32 16, i8* @.str.2.39_tick)
  call void bitcast (void (i8*, i8*, i64, i8, i8*)* @assignLow8BitsToInt8 to void (i8*, i8*, i32, i32, i8*)*)(i8* getelementptr inbounds ([5 x i8], [5 x i8]* @.str.2.39_abc, i32 0, i32 0), i8* %47, i32 5, i32 0, i8* @.str.2.39_tick)
  store i8 %51, i8* @.str.2.39_tick, align 1
  %52 = call i8* @strstr(i8* noundef %43, i8* noundef getelementptr inbounds ([5 x i8], [5 x i8]* @.str.2.39_abc, i64 0, i64 0)) #11
  call void bitcast (void (i8*, i8*, i64, i8, i8*)* @assignLow8BitsToInt8 to void (i8*, i8*, i32, i32, i8*)*)(i8* getelementptr inbounds ([5 x i8], [5 x i8]* @.str.2.39_abc, i32 0, i32 0), i8* %48, i32 5, i32 0, i8* @.str.2.39_tick)
  store i8* %52, i8** %8, align 8
  %53 = load i8*, i8** %8, align 8
  %54 = icmp ne i8* %53, null
  br i1 %54, label %55, label %61

55:                                               ; preds = %38
  %56 = load i8*, i8** %8, align 8
  %57 = load i8*, i8** %6, align 8
  %58 = ptrtoint i8* %56 to i64
  %59 = ptrtoint i8* %57 to i64
  %60 = sub i64 %58, %59
  store i64 %60, i64* %7, align 8
  br label %61

61:                                               ; preds = %55, %38
  %62 = load i64, i64* %7, align 8
  %63 = add i64 %62, 1
  %64 = call noalias i8* @malloc(i64 noundef %63) #10
  store i8* %64, i8** %9, align 8
  %65 = load i8*, i8** %9, align 8
  %66 = icmp ne i8* %65, null
  br i1 %66, label %67, label %86

67:                                               ; preds = %61
  %68 = load i8*, i8** %9, align 8
  %69 = load i8*, i8** %6, align 8
  %70 = load i64, i64* %7, align 8
  %71 = call i8* @strncpy(i8* noundef %68, i8* noundef %69, i64 noundef %70) #10
  %72 = load i8*, i8** %9, align 8
  %73 = load i64, i64* %7, align 8
  %74 = getelementptr inbounds i8, i8* %72, i64 %73
  store i8 0, i8* %74, align 1
  %75 = load i8*, i8** %9, align 8
  %76 = alloca [48 x i8], align 1
  %77 = alloca [48 x i8], align 1
  %78 = alloca [64 x i8], align 1
  %79 = getelementptr [48 x i8], [48 x i8]* %76, i32 0, i32 0
  %80 = getelementptr [48 x i8], [48 x i8]* %77, i32 0, i32 0
  %81 = getelementptr [64 x i8], [64 x i8]* %78, i32 0, i32 0
  %82 = load i8, i8* @.str.6.44_tick, align 1
  %83 = sub i8 %82, 1
  call void bitcast (void (i8*, i8*, i64, i8, i8*)* @assignLow8BitsToInt8 to void (i8*, i8*, i32, i32, i8*)*)(i8* getelementptr inbounds ([48 x i8], [48 x i8]* @.str.6.44_abc, i32 0, i32 0), i8* %79, i32 48, i32 1, i8* @.str.6.44_tick)
  call void bitcast (void (i8*, i8*, i64, i8, i8*)* @assignLow8BitsToInt8 to void (i8*, i8*, i32, i32, i8*)*)(i8* getelementptr inbounds ([48 x i8], [48 x i8]* @.str.6.44_abc, i32 0, i32 0), i8* %80, i32 48, i32 1, i8* @.str.6.44_tick)
  call void bitcast (void (i8*, i8*, i64, i8, i8*)* @assignLow8BitsToInt8 to void (i8*, i8*, i32, i32, i8*)*)(i8* getelementptr inbounds ([64 x i8], [64 x i8]* @.str.6.44_xyz, i32 0, i32 0), i8* %81, i32 64, i32 1, i8* @.str.6.44_tick)
  call void @genRandomString(i8* %80, i32 48)
  call void @Dec_sm4_ecb_cbc(i32 0, i32 1, i8* %79, i8* %81, i32 64, i8* @.str.6.44_tick)
  call void bitcast (void (i8*, i8*, i64, i8, i8*)* @assignLow8BitsToInt8 to void (i8*, i8*, i32, i32, i8*)*)(i8* getelementptr inbounds ([48 x i8], [48 x i8]* @.str.6.44_abc, i32 0, i32 0), i8* %79, i32 48, i32 0, i8* @.str.6.44_tick)
  store i8 %83, i8* @.str.6.44_tick, align 1
  %84 = call i32 (i8*, ...) @printf(i8* noundef getelementptr inbounds ([48 x i8], [48 x i8]* @.str.6.44_abc, i64 0, i64 0), i8* noundef %75)
  call void bitcast (void (i8*, i8*, i64, i8, i8*)* @assignLow8BitsToInt8 to void (i8*, i8*, i32, i32, i8*)*)(i8* getelementptr inbounds ([48 x i8], [48 x i8]* @.str.6.44_abc, i32 0, i32 0), i8* %80, i32 48, i32 0, i8* @.str.6.44_tick)
  %85 = load i8*, i8** %9, align 8
  store i8* %85, i8** %3, align 8
  br label %88

86:                                               ; preds = %61
  br label %87

87:                                               ; preds = %86, %26
  store i8* null, i8** %3, align 8
  br label %88

88:                                               ; preds = %87, %67, %25
  %89 = load i8*, i8** %3, align 8
  ret i8* %89
}

; Function Attrs: nounwind readonly willreturn
declare i32 @strncmp(i8* noundef, i8* noundef, i64 noundef) #3

; Function Attrs: nounwind readonly willreturn
declare i8* @strstr(i8* noundef, i8* noundef) #3

; Function Attrs: noinline nounwind optnone uwtable
define dso_local i8* @_obf_func_1vlM(i32 noundef %0) #0 {
  %2 = alloca i8*, align 8
  %3 = alloca i32, align 4
  %4 = alloca i8*, align 8
  %5 = alloca i32, align 4
  store i32 %0, i32* %3, align 4
  %6 = load i32, i32* %3, align 4
  %7 = alloca [52 x i8], align 1
  %8 = alloca [52 x i8], align 1
  %9 = alloca [64 x i8], align 1
  %10 = getelementptr [52 x i8], [52 x i8]* %7, i32 0, i32 0
  %11 = getelementptr [52 x i8], [52 x i8]* %8, i32 0, i32 0
  %12 = getelementptr [64 x i8], [64 x i8]* %9, i32 0, i32 0
  %13 = load i8, i8* @.str.8.45_tick, align 1
  %14 = sub i8 %13, 1
  call void bitcast (void (i8*, i8*, i64, i8, i8*)* @assignLow8BitsToInt8 to void (i8*, i8*, i32, i32, i8*)*)(i8* getelementptr inbounds ([52 x i8], [52 x i8]* @.str.8.45_abc, i32 0, i32 0), i8* %10, i32 52, i32 1, i8* @.str.8.45_tick)
  call void bitcast (void (i8*, i8*, i64, i8, i8*)* @assignLow8BitsToInt8 to void (i8*, i8*, i32, i32, i8*)*)(i8* getelementptr inbounds ([52 x i8], [52 x i8]* @.str.8.45_abc, i32 0, i32 0), i8* %11, i32 52, i32 1, i8* @.str.8.45_tick)
  call void bitcast (void (i8*, i8*, i64, i8, i8*)* @assignLow8BitsToInt8 to void (i8*, i8*, i32, i32, i8*)*)(i8* getelementptr inbounds ([64 x i8], [64 x i8]* @.str.8.45_xyz, i32 0, i32 0), i8* %12, i32 64, i32 1, i8* @.str.8.45_tick)
  call void @genRandomString(i8* %11, i32 52)
  call void @Dec_sm4_ecb_cbc(i32 0, i32 1, i8* %10, i8* %12, i32 64, i8* @.str.8.45_tick)
  call void bitcast (void (i8*, i8*, i64, i8, i8*)* @assignLow8BitsToInt8 to void (i8*, i8*, i32, i32, i8*)*)(i8* getelementptr inbounds ([52 x i8], [52 x i8]* @.str.8.45_abc, i32 0, i32 0), i8* %10, i32 52, i32 0, i8* @.str.8.45_tick)
  store i8 %14, i8* @.str.8.45_tick, align 1
  %15 = call i32 (i8*, ...) @printf(i8* noundef getelementptr inbounds ([52 x i8], [52 x i8]* @.str.8.45_abc, i64 0, i64 0), i32 noundef %6)
  call void bitcast (void (i8*, i8*, i64, i8, i8*)* @assignLow8BitsToInt8 to void (i8*, i8*, i32, i32, i8*)*)(i8* getelementptr inbounds ([52 x i8], [52 x i8]* @.str.8.45_abc, i32 0, i32 0), i8* %11, i32 52, i32 0, i8* @.str.8.45_tick)
  %16 = load i32, i32* %3, align 4
  %17 = icmp sle i32 %16, 0
  br i1 %17, label %18, label %19

18:                                               ; preds = %1
  store i8* null, i8** %2, align 8
  br label %50

19:                                               ; preds = %1
  %20 = load i32, i32* %3, align 4
  %21 = add nsw i32 %20, 1
  %22 = sext i32 %21 to i64
  %23 = call noalias i8* @malloc(i64 noundef %22) #10
  store i8* %23, i8** %4, align 8
  %24 = load i8*, i8** %4, align 8
  %25 = icmp ne i8* %24, null
  br i1 %25, label %26, label %49

26:                                               ; preds = %19
  store i32 0, i32* %5, align 4
  br label %27

27:                                               ; preds = %40, %26
  %28 = load i32, i32* %5, align 4
  %29 = load i32, i32* %3, align 4
  %30 = icmp slt i32 %28, %29
  br i1 %30, label %31, label %43

31:                                               ; preds = %27
  %32 = call i32 @rand() #10
  %33 = srem i32 %32, 10
  %34 = add nsw i32 83, %33
  %35 = trunc i32 %34 to i8
  %36 = load i8*, i8** %4, align 8
  %37 = load i32, i32* %5, align 4
  %38 = sext i32 %37 to i64
  %39 = getelementptr inbounds i8, i8* %36, i64 %38
  store i8 %35, i8* %39, align 1
  br label %40

40:                                               ; preds = %31
  %41 = load i32, i32* %5, align 4
  %42 = add nsw i32 %41, 1
  store i32 %42, i32* %5, align 4
  br label %27, !llvm.loop !9

43:                                               ; preds = %27
  %44 = load i8*, i8** %4, align 8
  %45 = load i32, i32* %3, align 4
  %46 = sext i32 %45 to i64
  %47 = getelementptr inbounds i8, i8* %44, i64 %46
  store i8 0, i8* %47, align 1
  %48 = load i8*, i8** %4, align 8
  store i8* %48, i8** %2, align 8
  br label %50

49:                                               ; preds = %19
  store i8* null, i8** %2, align 8
  br label %50

50:                                               ; preds = %49, %43, %18
  %51 = load i8*, i8** %2, align 8
  ret i8* %51
}

; Function Attrs: mustprogress noinline optnone uwtable
define dso_local noundef i64 @_ZN11CryptoUtils12get_uint64_tEv(%class.CryptoUtils* noundef nonnull align 8 dereferenceable(2504) %0) #5 align 2 {
  %2 = alloca %class.CryptoUtils*, align 8
  %3 = alloca %"class.std::uniform_int_distribution", align 8
  store %class.CryptoUtils* %0, %class.CryptoUtils** %2, align 8
  %4 = load %class.CryptoUtils*, %class.CryptoUtils** %2, align 8
  call void @_ZNSt24uniform_int_distributionImEC2Ev(%"class.std::uniform_int_distribution"* noundef nonnull align 8 dereferenceable(16) %3)
  %5 = getelementptr inbounds %class.CryptoUtils, %class.CryptoUtils* %4, i32 0, i32 0
  %6 = call noundef i64 @_ZNSt24uniform_int_distributionImEclISt23mersenne_twister_engineImLm64ELm312ELm156ELm31ELm13043109905998158313ELm29ELm6148914691236517205ELm17ELm8202884508482404352ELm37ELm18444473444759240704ELm43ELm6364136223846793005EEEEmRT_(%"class.std::uniform_int_distribution"* noundef nonnull align 8 dereferenceable(16) %3, %"class.std::mersenne_twister_engine"* noundef nonnull align 8 dereferenceable(2504) %5)
  ret i64 %6
}

; Function Attrs: noinline optnone uwtable
define linkonce_odr dso_local void @_ZNSt24uniform_int_distributionImEC2Ev(%"class.std::uniform_int_distribution"* noundef nonnull align 8 dereferenceable(16) %0) unnamed_addr #6 comdat align 2 {
  %2 = alloca %"class.std::uniform_int_distribution"*, align 8
  store %"class.std::uniform_int_distribution"* %0, %"class.std::uniform_int_distribution"** %2, align 8
  %3 = load %"class.std::uniform_int_distribution"*, %"class.std::uniform_int_distribution"** %2, align 8
  call void @_ZNSt24uniform_int_distributionImEC2Emm(%"class.std::uniform_int_distribution"* noundef nonnull align 8 dereferenceable(16) %3, i64 noundef 0, i64 noundef -1)
  ret void
}

; Function Attrs: mustprogress noinline optnone uwtable
define linkonce_odr dso_local noundef i64 @_ZNSt24uniform_int_distributionImEclISt23mersenne_twister_engineImLm64ELm312ELm156ELm31ELm13043109905998158313ELm29ELm6148914691236517205ELm17ELm8202884508482404352ELm37ELm18444473444759240704ELm43ELm6364136223846793005EEEEmRT_(%"class.std::uniform_int_distribution"* noundef nonnull align 8 dereferenceable(16) %0, %"class.std::mersenne_twister_engine"* noundef nonnull align 8 dereferenceable(2504) %1) #5 comdat align 2 {
  %3 = alloca %"class.std::uniform_int_distribution"*, align 8
  %4 = alloca %"class.std::mersenne_twister_engine"*, align 8
  store %"class.std::uniform_int_distribution"* %0, %"class.std::uniform_int_distribution"** %3, align 8
  store %"class.std::mersenne_twister_engine"* %1, %"class.std::mersenne_twister_engine"** %4, align 8
  %5 = load %"class.std::uniform_int_distribution"*, %"class.std::uniform_int_distribution"** %3, align 8
  %6 = load %"class.std::mersenne_twister_engine"*, %"class.std::mersenne_twister_engine"** %4, align 8
  %7 = getelementptr inbounds %"class.std::uniform_int_distribution", %"class.std::uniform_int_distribution"* %5, i32 0, i32 0
  %8 = call noundef i64 @_ZNSt24uniform_int_distributionImEclISt23mersenne_twister_engineImLm64ELm312ELm156ELm31ELm13043109905998158313ELm29ELm6148914691236517205ELm17ELm8202884508482404352ELm37ELm18444473444759240704ELm43ELm6364136223846793005EEEEmRT_RKNS0_10param_typeE(%"class.std::uniform_int_distribution"* noundef nonnull align 8 dereferenceable(16) %5, %"class.std::mersenne_twister_engine"* noundef nonnull align 8 dereferenceable(2504) %6, %"struct.std::uniform_int_distribution<unsigned long>::param_type"* noundef nonnull align 8 dereferenceable(16) %7)
  ret i64 %8
}

; Function Attrs: mustprogress noinline optnone uwtable
define linkonce_odr dso_local noundef i64 @_ZNSt24uniform_int_distributionImEclISt23mersenne_twister_engineImLm64ELm312ELm156ELm31ELm13043109905998158313ELm29ELm6148914691236517205ELm17ELm8202884508482404352ELm37ELm18444473444759240704ELm43ELm6364136223846793005EEEEmRT_RKNS0_10param_typeE(%"class.std::uniform_int_distribution"* noundef nonnull align 8 dereferenceable(16) %0, %"class.std::mersenne_twister_engine"* noundef nonnull align 8 dereferenceable(2504) %1, %"struct.std::uniform_int_distribution<unsigned long>::param_type"* noundef nonnull align 8 dereferenceable(16) %2) #5 comdat align 2 {
  %4 = alloca %"class.std::uniform_int_distribution"*, align 8
  %5 = alloca %"class.std::mersenne_twister_engine"*, align 8
  %6 = alloca %"struct.std::uniform_int_distribution<unsigned long>::param_type"*, align 8
  %7 = alloca i64, align 8
  %8 = alloca i64, align 8
  %9 = alloca i64, align 8
  %10 = alloca i64, align 8
  %11 = alloca i64, align 8
  %12 = alloca i64, align 8
  %13 = alloca i64, align 8
  %14 = alloca i64, align 8
  %15 = alloca i64, align 8
  %16 = alloca %"struct.std::uniform_int_distribution<unsigned long>::param_type", align 8
  store %"class.std::uniform_int_distribution"* %0, %"class.std::uniform_int_distribution"** %4, align 8
  store %"class.std::mersenne_twister_engine"* %1, %"class.std::mersenne_twister_engine"** %5, align 8
  store %"struct.std::uniform_int_distribution<unsigned long>::param_type"* %2, %"struct.std::uniform_int_distribution<unsigned long>::param_type"** %6, align 8
  %17 = load %"class.std::uniform_int_distribution"*, %"class.std::uniform_int_distribution"** %4, align 8
  store i64 0, i64* %7, align 8
  store i64 -1, i64* %8, align 8
  store i64 -1, i64* %9, align 8
  %18 = load %"struct.std::uniform_int_distribution<unsigned long>::param_type"*, %"struct.std::uniform_int_distribution<unsigned long>::param_type"** %6, align 8
  %19 = call noundef i64 @_ZNKSt24uniform_int_distributionImE10param_type1bEv(%"struct.std::uniform_int_distribution<unsigned long>::param_type"* noundef nonnull align 8 dereferenceable(16) %18)
  %20 = load %"struct.std::uniform_int_distribution<unsigned long>::param_type"*, %"struct.std::uniform_int_distribution<unsigned long>::param_type"** %6, align 8
  %21 = call noundef i64 @_ZNKSt24uniform_int_distributionImE10param_type1aEv(%"struct.std::uniform_int_distribution<unsigned long>::param_type"* noundef nonnull align 8 dereferenceable(16) %20)
  %22 = sub i64 %19, %21
  store i64 %22, i64* %10, align 8
  %23 = load i64, i64* %10, align 8
  %24 = icmp ugt i64 -1, %23
  br i1 %24, label %25, label %32

25:                                               ; preds = %3
  %26 = load i64, i64* %10, align 8
  %27 = add i64 %26, 1
  store i64 %27, i64* %12, align 8
  %28 = load i64, i64* %12, align 8
  store i64 %28, i64* %13, align 8
  %29 = load %"class.std::mersenne_twister_engine"*, %"class.std::mersenne_twister_engine"** %5, align 8
  %30 = load i64, i64* %13, align 8
  %31 = call noundef i64 @_ZNSt24uniform_int_distributionImE5_S_ndIoSt23mersenne_twister_engineImLm64ELm312ELm156ELm31ELm13043109905998158313ELm29ELm6148914691236517205ELm17ELm8202884508482404352ELm37ELm18444473444759240704ELm43ELm6364136223846793005EEmEET1_RT0_S4_(%"class.std::mersenne_twister_engine"* noundef nonnull align 8 dereferenceable(2504) %29, i64 noundef %30)
  store i64 %31, i64* %11, align 8
  br label %63

32:                                               ; preds = %3
  %33 = load i64, i64* %10, align 8
  %34 = icmp ult i64 -1, %33
  br i1 %34, label %35, label %58

35:                                               ; preds = %32
  br label %36

36:                                               ; preds = %55, %35
  store i64 0, i64* %15, align 8
  %37 = load %"class.std::mersenne_twister_engine"*, %"class.std::mersenne_twister_engine"** %5, align 8
  %38 = load i64, i64* %10, align 8
  %39 = udiv i64 %38, 0
  call void @_ZNSt24uniform_int_distributionImE10param_typeC2Emm(%"struct.std::uniform_int_distribution<unsigned long>::param_type"* noundef nonnull align 8 dereferenceable(16) %16, i64 noundef 0, i64 noundef %39)
  %40 = call noundef i64 @_ZNSt24uniform_int_distributionImEclISt23mersenne_twister_engineImLm64ELm312ELm156ELm31ELm13043109905998158313ELm29ELm6148914691236517205ELm17ELm8202884508482404352ELm37ELm18444473444759240704ELm43ELm6364136223846793005EEEEmRT_RKNS0_10param_typeE(%"class.std::uniform_int_distribution"* noundef nonnull align 8 dereferenceable(16) %17, %"class.std::mersenne_twister_engine"* noundef nonnull align 8 dereferenceable(2504) %37, %"struct.std::uniform_int_distribution<unsigned long>::param_type"* noundef nonnull align 8 dereferenceable(16) %16)
  %41 = mul i64 0, %40
  store i64 %41, i64* %14, align 8
  %42 = load i64, i64* %14, align 8
  %43 = load %"class.std::mersenne_twister_engine"*, %"class.std::mersenne_twister_engine"** %5, align 8
  %44 = call noundef i64 @_ZNSt23mersenne_twister_engineImLm64ELm312ELm156ELm31ELm13043109905998158313ELm29ELm6148914691236517205ELm17ELm8202884508482404352ELm37ELm18444473444759240704ELm43ELm6364136223846793005EEclEv(%"class.std::mersenne_twister_engine"* noundef nonnull align 8 dereferenceable(2504) %43)
  %45 = sub i64 %44, 0
  %46 = add i64 %42, %45
  store i64 %46, i64* %11, align 8
  br label %47

47:                                               ; preds = %36
  %48 = load i64, i64* %11, align 8
  %49 = load i64, i64* %10, align 8
  %50 = icmp ugt i64 %48, %49
  br i1 %50, label %55, label %51

51:                                               ; preds = %47
  %52 = load i64, i64* %11, align 8
  %53 = load i64, i64* %14, align 8
  %54 = icmp ult i64 %52, %53
  br label %55

55:                                               ; preds = %51, %47
  %56 = phi i1 [ true, %47 ], [ %54, %51 ]
  br i1 %56, label %36, label %57, !llvm.loop !10

57:                                               ; preds = %55
  br label %62

58:                                               ; preds = %32
  %59 = load %"class.std::mersenne_twister_engine"*, %"class.std::mersenne_twister_engine"** %5, align 8
  %60 = call noundef i64 @_ZNSt23mersenne_twister_engineImLm64ELm312ELm156ELm31ELm13043109905998158313ELm29ELm6148914691236517205ELm17ELm8202884508482404352ELm37ELm18444473444759240704ELm43ELm6364136223846793005EEclEv(%"class.std::mersenne_twister_engine"* noundef nonnull align 8 dereferenceable(2504) %59)
  %61 = sub i64 %60, 0
  store i64 %61, i64* %11, align 8
  br label %62

62:                                               ; preds = %58, %57
  br label %63

63:                                               ; preds = %62, %25
  %64 = load i64, i64* %11, align 8
  %65 = load %"struct.std::uniform_int_distribution<unsigned long>::param_type"*, %"struct.std::uniform_int_distribution<unsigned long>::param_type"** %6, align 8
  %66 = call noundef i64 @_ZNKSt24uniform_int_distributionImE10param_type1aEv(%"struct.std::uniform_int_distribution<unsigned long>::param_type"* noundef nonnull align 8 dereferenceable(16) %65)
  %67 = add i64 %64, %66
  ret i64 %67
}

; Function Attrs: mustprogress noinline nounwind optnone uwtable
define linkonce_odr dso_local noundef i64 @_ZNKSt24uniform_int_distributionImE10param_type1bEv(%"struct.std::uniform_int_distribution<unsigned long>::param_type"* noundef nonnull align 8 dereferenceable(16) %0) #7 comdat align 2 {
  %2 = alloca %"struct.std::uniform_int_distribution<unsigned long>::param_type"*, align 8
  store %"struct.std::uniform_int_distribution<unsigned long>::param_type"* %0, %"struct.std::uniform_int_distribution<unsigned long>::param_type"** %2, align 8
  %3 = load %"struct.std::uniform_int_distribution<unsigned long>::param_type"*, %"struct.std::uniform_int_distribution<unsigned long>::param_type"** %2, align 8
  %4 = getelementptr inbounds %"struct.std::uniform_int_distribution<unsigned long>::param_type", %"struct.std::uniform_int_distribution<unsigned long>::param_type"* %3, i32 0, i32 1
  %5 = load i64, i64* %4, align 8
  ret i64 %5
}

; Function Attrs: mustprogress noinline nounwind optnone uwtable
define linkonce_odr dso_local noundef i64 @_ZNKSt24uniform_int_distributionImE10param_type1aEv(%"struct.std::uniform_int_distribution<unsigned long>::param_type"* noundef nonnull align 8 dereferenceable(16) %0) #7 comdat align 2 {
  %2 = alloca %"struct.std::uniform_int_distribution<unsigned long>::param_type"*, align 8
  store %"struct.std::uniform_int_distribution<unsigned long>::param_type"* %0, %"struct.std::uniform_int_distribution<unsigned long>::param_type"** %2, align 8
  %3 = load %"struct.std::uniform_int_distribution<unsigned long>::param_type"*, %"struct.std::uniform_int_distribution<unsigned long>::param_type"** %2, align 8
  %4 = getelementptr inbounds %"struct.std::uniform_int_distribution<unsigned long>::param_type", %"struct.std::uniform_int_distribution<unsigned long>::param_type"* %3, i32 0, i32 0
  %5 = load i64, i64* %4, align 8
  ret i64 %5
}

; Function Attrs: mustprogress noinline optnone uwtable
define linkonce_odr dso_local noundef i64 @_ZNSt24uniform_int_distributionImE5_S_ndIoSt23mersenne_twister_engineImLm64ELm312ELm156ELm31ELm13043109905998158313ELm29ELm6148914691236517205ELm17ELm8202884508482404352ELm37ELm18444473444759240704ELm43ELm6364136223846793005EEmEET1_RT0_S4_(%"class.std::mersenne_twister_engine"* noundef nonnull align 8 dereferenceable(2504) %0, i64 noundef %1) #5 comdat align 2 {
  %3 = alloca %"class.std::mersenne_twister_engine"*, align 8
  %4 = alloca i64, align 8
  %5 = alloca i128, align 16
  %6 = alloca i64, align 8
  %7 = alloca i64, align 8
  store %"class.std::mersenne_twister_engine"* %0, %"class.std::mersenne_twister_engine"** %3, align 8
  store i64 %1, i64* %4, align 8
  %8 = load %"class.std::mersenne_twister_engine"*, %"class.std::mersenne_twister_engine"** %3, align 8
  %9 = call noundef i64 @_ZNSt23mersenne_twister_engineImLm64ELm312ELm156ELm31ELm13043109905998158313ELm29ELm6148914691236517205ELm17ELm8202884508482404352ELm37ELm18444473444759240704ELm43ELm6364136223846793005EEclEv(%"class.std::mersenne_twister_engine"* noundef nonnull align 8 dereferenceable(2504) %8)
  %10 = zext i64 %9 to i128
  %11 = load i64, i64* %4, align 8
  %12 = zext i64 %11 to i128
  %13 = mul i128 %10, %12
  store i128 %13, i128* %5, align 16
  %14 = load i128, i128* %5, align 16
  %15 = trunc i128 %14 to i64
  store i64 %15, i64* %6, align 8
  %16 = load i64, i64* %6, align 8
  %17 = load i64, i64* %4, align 8
  %18 = icmp ult i64 %16, %17
  br i1 %18, label %19, label %38

19:                                               ; preds = %2
  %20 = load i64, i64* %4, align 8
  %21 = sub i64 0, %20
  %22 = load i64, i64* %4, align 8
  %23 = urem i64 %21, %22
  store i64 %23, i64* %7, align 8
  br label %24

24:                                               ; preds = %28, %19
  %25 = load i64, i64* %6, align 8
  %26 = load i64, i64* %7, align 8
  %27 = icmp ult i64 %25, %26
  br i1 %27, label %28, label %37

28:                                               ; preds = %24
  %29 = load %"class.std::mersenne_twister_engine"*, %"class.std::mersenne_twister_engine"** %3, align 8
  %30 = call noundef i64 @_ZNSt23mersenne_twister_engineImLm64ELm312ELm156ELm31ELm13043109905998158313ELm29ELm6148914691236517205ELm17ELm8202884508482404352ELm37ELm18444473444759240704ELm43ELm6364136223846793005EEclEv(%"class.std::mersenne_twister_engine"* noundef nonnull align 8 dereferenceable(2504) %29)
  %31 = zext i64 %30 to i128
  %32 = load i64, i64* %4, align 8
  %33 = zext i64 %32 to i128
  %34 = mul i128 %31, %33
  store i128 %34, i128* %5, align 16
  %35 = load i128, i128* %5, align 16
  %36 = trunc i128 %35 to i64
  store i64 %36, i64* %6, align 8
  br label %24, !llvm.loop !11

37:                                               ; preds = %24
  br label %38

38:                                               ; preds = %37, %2
  %39 = load i128, i128* %5, align 16
  %40 = lshr i128 %39, 64
  %41 = trunc i128 %40 to i64
  ret i64 %41
}

; Function Attrs: noinline nounwind optnone uwtable
define linkonce_odr dso_local void @_ZNSt24uniform_int_distributionImE10param_typeC2Emm(%"struct.std::uniform_int_distribution<unsigned long>::param_type"* noundef nonnull align 8 dereferenceable(16) %0, i64 noundef %1, i64 noundef %2) unnamed_addr #0 comdat align 2 {
  %4 = alloca %"struct.std::uniform_int_distribution<unsigned long>::param_type"*, align 8
  %5 = alloca i64, align 8
  %6 = alloca i64, align 8
  store %"struct.std::uniform_int_distribution<unsigned long>::param_type"* %0, %"struct.std::uniform_int_distribution<unsigned long>::param_type"** %4, align 8
  store i64 %1, i64* %5, align 8
  store i64 %2, i64* %6, align 8
  %7 = load %"struct.std::uniform_int_distribution<unsigned long>::param_type"*, %"struct.std::uniform_int_distribution<unsigned long>::param_type"** %4, align 8
  %8 = getelementptr inbounds %"struct.std::uniform_int_distribution<unsigned long>::param_type", %"struct.std::uniform_int_distribution<unsigned long>::param_type"* %7, i32 0, i32 0
  %9 = load i64, i64* %5, align 8
  store i64 %9, i64* %8, align 8
  %10 = getelementptr inbounds %"struct.std::uniform_int_distribution<unsigned long>::param_type", %"struct.std::uniform_int_distribution<unsigned long>::param_type"* %7, i32 0, i32 1
  %11 = load i64, i64* %6, align 8
  store i64 %11, i64* %10, align 8
  br label %12

12:                                               ; preds = %3
  br label %13

13:                                               ; preds = %12
  ret void
}

; Function Attrs: mustprogress noinline optnone uwtable
define linkonce_odr dso_local noundef i64 @_ZNSt23mersenne_twister_engineImLm64ELm312ELm156ELm31ELm13043109905998158313ELm29ELm6148914691236517205ELm17ELm8202884508482404352ELm37ELm18444473444759240704ELm43ELm6364136223846793005EEclEv(%"class.std::mersenne_twister_engine"* noundef nonnull align 8 dereferenceable(2504) %0) #5 comdat align 2 {
  %2 = alloca %"class.std::mersenne_twister_engine"*, align 8
  %3 = alloca i64, align 8
  store %"class.std::mersenne_twister_engine"* %0, %"class.std::mersenne_twister_engine"** %2, align 8
  %4 = load %"class.std::mersenne_twister_engine"*, %"class.std::mersenne_twister_engine"** %2, align 8
  %5 = getelementptr inbounds %"class.std::mersenne_twister_engine", %"class.std::mersenne_twister_engine"* %4, i32 0, i32 1
  %6 = load i64, i64* %5, align 8
  %7 = icmp uge i64 %6, 312
  br i1 %7, label %8, label %9

8:                                                ; preds = %1
  call void @_ZNSt23mersenne_twister_engineImLm64ELm312ELm156ELm31ELm13043109905998158313ELm29ELm6148914691236517205ELm17ELm8202884508482404352ELm37ELm18444473444759240704ELm43ELm6364136223846793005EE11_M_gen_randEv(%"class.std::mersenne_twister_engine"* noundef nonnull align 8 dereferenceable(2504) %4)
  br label %9

9:                                                ; preds = %8, %1
  %10 = getelementptr inbounds %"class.std::mersenne_twister_engine", %"class.std::mersenne_twister_engine"* %4, i32 0, i32 0
  %11 = getelementptr inbounds %"class.std::mersenne_twister_engine", %"class.std::mersenne_twister_engine"* %4, i32 0, i32 1
  %12 = load i64, i64* %11, align 8
  %13 = add i64 %12, 1
  store i64 %13, i64* %11, align 8
  %14 = getelementptr inbounds [312 x i64], [312 x i64]* %10, i64 0, i64 %12
  %15 = load i64, i64* %14, align 8
  store i64 %15, i64* %3, align 8
  %16 = load i64, i64* %3, align 8
  %17 = lshr i64 %16, 29
  %18 = and i64 %17, 6148914691236517205
  %19 = load i64, i64* %3, align 8
  %20 = xor i64 %19, %18
  store i64 %20, i64* %3, align 8
  %21 = load i64, i64* %3, align 8
  %22 = shl i64 %21, 17
  %23 = and i64 %22, 8202884508482404352
  %24 = load i64, i64* %3, align 8
  %25 = xor i64 %24, %23
  store i64 %25, i64* %3, align 8
  %26 = load i64, i64* %3, align 8
  %27 = shl i64 %26, 37
  %28 = and i64 %27, -2270628950310912
  %29 = load i64, i64* %3, align 8
  %30 = xor i64 %29, %28
  store i64 %30, i64* %3, align 8
  %31 = load i64, i64* %3, align 8
  %32 = lshr i64 %31, 43
  %33 = load i64, i64* %3, align 8
  %34 = xor i64 %33, %32
  store i64 %34, i64* %3, align 8
  %35 = load i64, i64* %3, align 8
  ret i64 %35
}

; Function Attrs: mustprogress noinline nounwind optnone uwtable
define linkonce_odr dso_local void @_ZNSt23mersenne_twister_engineImLm64ELm312ELm156ELm31ELm13043109905998158313ELm29ELm6148914691236517205ELm17ELm8202884508482404352ELm37ELm18444473444759240704ELm43ELm6364136223846793005EE11_M_gen_randEv(%"class.std::mersenne_twister_engine"* noundef nonnull align 8 dereferenceable(2504) %0) #7 comdat align 2 {
  %2 = alloca %"class.std::mersenne_twister_engine"*, align 8
  %3 = alloca i64, align 8
  %4 = alloca i64, align 8
  %5 = alloca i64, align 8
  %6 = alloca i64, align 8
  %7 = alloca i64, align 8
  %8 = alloca i64, align 8
  %9 = alloca i64, align 8
  store %"class.std::mersenne_twister_engine"* %0, %"class.std::mersenne_twister_engine"** %2, align 8
  %10 = load %"class.std::mersenne_twister_engine"*, %"class.std::mersenne_twister_engine"** %2, align 8
  store i64 -2147483648, i64* %3, align 8
  store i64 2147483647, i64* %4, align 8
  store i64 0, i64* %5, align 8
  br label %11

11:                                               ; preds = %44, %1
  %12 = load i64, i64* %5, align 8
  %13 = icmp ult i64 %12, 156
  br i1 %13, label %14, label %47

14:                                               ; preds = %11
  %15 = getelementptr inbounds %"class.std::mersenne_twister_engine", %"class.std::mersenne_twister_engine"* %10, i32 0, i32 0
  %16 = load i64, i64* %5, align 8
  %17 = getelementptr inbounds [312 x i64], [312 x i64]* %15, i64 0, i64 %16
  %18 = load i64, i64* %17, align 8
  %19 = and i64 %18, -2147483648
  %20 = getelementptr inbounds %"class.std::mersenne_twister_engine", %"class.std::mersenne_twister_engine"* %10, i32 0, i32 0
  %21 = load i64, i64* %5, align 8
  %22 = add i64 %21, 1
  %23 = getelementptr inbounds [312 x i64], [312 x i64]* %20, i64 0, i64 %22
  %24 = load i64, i64* %23, align 8
  %25 = and i64 %24, 2147483647
  %26 = or i64 %19, %25
  store i64 %26, i64* %6, align 8
  %27 = getelementptr inbounds %"class.std::mersenne_twister_engine", %"class.std::mersenne_twister_engine"* %10, i32 0, i32 0
  %28 = load i64, i64* %5, align 8
  %29 = add i64 %28, 156
  %30 = getelementptr inbounds [312 x i64], [312 x i64]* %27, i64 0, i64 %29
  %31 = load i64, i64* %30, align 8
  %32 = load i64, i64* %6, align 8
  %33 = lshr i64 %32, 1
  %34 = xor i64 %31, %33
  %35 = load i64, i64* %6, align 8
  %36 = and i64 %35, 1
  %37 = icmp ne i64 %36, 0
  %38 = zext i1 %37 to i64
  %39 = select i1 %37, i64 -5403634167711393303, i64 0
  %40 = xor i64 %34, %39
  %41 = getelementptr inbounds %"class.std::mersenne_twister_engine", %"class.std::mersenne_twister_engine"* %10, i32 0, i32 0
  %42 = load i64, i64* %5, align 8
  %43 = getelementptr inbounds [312 x i64], [312 x i64]* %41, i64 0, i64 %42
  store i64 %40, i64* %43, align 8
  br label %44

44:                                               ; preds = %14
  %45 = load i64, i64* %5, align 8
  %46 = add i64 %45, 1
  store i64 %46, i64* %5, align 8
  br label %11, !llvm.loop !12

47:                                               ; preds = %11
  store i64 156, i64* %7, align 8
  br label %48

48:                                               ; preds = %81, %47
  %49 = load i64, i64* %7, align 8
  %50 = icmp ult i64 %49, 311
  br i1 %50, label %51, label %84

51:                                               ; preds = %48
  %52 = getelementptr inbounds %"class.std::mersenne_twister_engine", %"class.std::mersenne_twister_engine"* %10, i32 0, i32 0
  %53 = load i64, i64* %7, align 8
  %54 = getelementptr inbounds [312 x i64], [312 x i64]* %52, i64 0, i64 %53
  %55 = load i64, i64* %54, align 8
  %56 = and i64 %55, -2147483648
  %57 = getelementptr inbounds %"class.std::mersenne_twister_engine", %"class.std::mersenne_twister_engine"* %10, i32 0, i32 0
  %58 = load i64, i64* %7, align 8
  %59 = add i64 %58, 1
  %60 = getelementptr inbounds [312 x i64], [312 x i64]* %57, i64 0, i64 %59
  %61 = load i64, i64* %60, align 8
  %62 = and i64 %61, 2147483647
  %63 = or i64 %56, %62
  store i64 %63, i64* %8, align 8
  %64 = getelementptr inbounds %"class.std::mersenne_twister_engine", %"class.std::mersenne_twister_engine"* %10, i32 0, i32 0
  %65 = load i64, i64* %7, align 8
  %66 = add i64 %65, -156
  %67 = getelementptr inbounds [312 x i64], [312 x i64]* %64, i64 0, i64 %66
  %68 = load i64, i64* %67, align 8
  %69 = load i64, i64* %8, align 8
  %70 = lshr i64 %69, 1
  %71 = xor i64 %68, %70
  %72 = load i64, i64* %8, align 8
  %73 = and i64 %72, 1
  %74 = icmp ne i64 %73, 0
  %75 = zext i1 %74 to i64
  %76 = select i1 %74, i64 -5403634167711393303, i64 0
  %77 = xor i64 %71, %76
  %78 = getelementptr inbounds %"class.std::mersenne_twister_engine", %"class.std::mersenne_twister_engine"* %10, i32 0, i32 0
  %79 = load i64, i64* %7, align 8
  %80 = getelementptr inbounds [312 x i64], [312 x i64]* %78, i64 0, i64 %79
  store i64 %77, i64* %80, align 8
  br label %81

81:                                               ; preds = %51
  %82 = load i64, i64* %7, align 8
  %83 = add i64 %82, 1
  store i64 %83, i64* %7, align 8
  br label %48, !llvm.loop !13

84:                                               ; preds = %48
  %85 = getelementptr inbounds %"class.std::mersenne_twister_engine", %"class.std::mersenne_twister_engine"* %10, i32 0, i32 0
  %86 = getelementptr inbounds [312 x i64], [312 x i64]* %85, i64 0, i64 311
  %87 = load i64, i64* %86, align 8
  %88 = and i64 %87, -2147483648
  %89 = getelementptr inbounds %"class.std::mersenne_twister_engine", %"class.std::mersenne_twister_engine"* %10, i32 0, i32 0
  %90 = getelementptr inbounds [312 x i64], [312 x i64]* %89, i64 0, i64 0
  %91 = load i64, i64* %90, align 8
  %92 = and i64 %91, 2147483647
  %93 = or i64 %88, %92
  store i64 %93, i64* %9, align 8
  %94 = getelementptr inbounds %"class.std::mersenne_twister_engine", %"class.std::mersenne_twister_engine"* %10, i32 0, i32 0
  %95 = getelementptr inbounds [312 x i64], [312 x i64]* %94, i64 0, i64 155
  %96 = load i64, i64* %95, align 8
  %97 = load i64, i64* %9, align 8
  %98 = lshr i64 %97, 1
  %99 = xor i64 %96, %98
  %100 = load i64, i64* %9, align 8
  %101 = and i64 %100, 1
  %102 = icmp ne i64 %101, 0
  %103 = zext i1 %102 to i64
  %104 = select i1 %102, i64 -5403634167711393303, i64 0
  %105 = xor i64 %99, %104
  %106 = getelementptr inbounds %"class.std::mersenne_twister_engine", %"class.std::mersenne_twister_engine"* %10, i32 0, i32 0
  %107 = getelementptr inbounds [312 x i64], [312 x i64]* %106, i64 0, i64 311
  store i64 %105, i64* %107, align 8
  %108 = getelementptr inbounds %"class.std::mersenne_twister_engine", %"class.std::mersenne_twister_engine"* %10, i32 0, i32 1
  store i64 0, i64* %108, align 8
  ret void
}

; Function Attrs: noinline optnone uwtable
define linkonce_odr dso_local void @_ZNSt24uniform_int_distributionImEC2Emm(%"class.std::uniform_int_distribution"* noundef nonnull align 8 dereferenceable(16) %0, i64 noundef %1, i64 noundef %2) unnamed_addr #6 comdat align 2 {
  %4 = alloca %"class.std::uniform_int_distribution"*, align 8
  %5 = alloca i64, align 8
  %6 = alloca i64, align 8
  store %"class.std::uniform_int_distribution"* %0, %"class.std::uniform_int_distribution"** %4, align 8
  store i64 %1, i64* %5, align 8
  store i64 %2, i64* %6, align 8
  %7 = load %"class.std::uniform_int_distribution"*, %"class.std::uniform_int_distribution"** %4, align 8
  %8 = getelementptr inbounds %"class.std::uniform_int_distribution", %"class.std::uniform_int_distribution"* %7, i32 0, i32 0
  %9 = load i64, i64* %5, align 8
  %10 = load i64, i64* %6, align 8
  call void @_ZNSt24uniform_int_distributionImE10param_typeC2Emm(%"struct.std::uniform_int_distribution<unsigned long>::param_type"* noundef nonnull align 8 dereferenceable(16) %8, i64 noundef %9, i64 noundef %10)
  ret void
}

; Function Attrs: mustprogress noinline nounwind optnone uwtable
define dso_local void @_ZN11CryptoUtils16sm4_key_scheduleEPKhPj(i8* noundef %0, i32* noundef %1) #7 align 2 {
  %3 = alloca i8*, align 8
  %4 = alloca i32*, align 8
  %5 = alloca i32, align 4
  %6 = alloca i32, align 4
  %7 = alloca [36 x i32], align 16
  %8 = alloca i32, align 4
  store i8* %0, i8** %3, align 8
  store i32* %1, i32** %4, align 8
  %9 = load i8*, i8** %3, align 8
  %10 = getelementptr inbounds i8, i8* %9, i64 0
  %11 = load i8, i8* %10, align 1
  %12 = zext i8 %11 to i32
  %13 = shl i32 %12, 24
  %14 = load i8*, i8** %3, align 8
  %15 = getelementptr inbounds i8, i8* %14, i64 1
  %16 = load i8, i8* %15, align 1
  %17 = zext i8 %16 to i32
  %18 = shl i32 %17, 16
  %19 = or i32 %13, %18
  %20 = load i8*, i8** %3, align 8
  %21 = getelementptr inbounds i8, i8* %20, i64 2
  %22 = load i8, i8* %21, align 1
  %23 = zext i8 %22 to i32
  %24 = shl i32 %23, 8
  %25 = or i32 %19, %24
  %26 = load i8*, i8** %3, align 8
  %27 = getelementptr inbounds i8, i8* %26, i64 3
  %28 = load i8, i8* %27, align 1
  %29 = zext i8 %28 to i32
  %30 = or i32 %25, %29
  %31 = getelementptr inbounds [36 x i32], [36 x i32]* %7, i64 0, i64 0
  store i32 %30, i32* %31, align 16
  %32 = load i8*, i8** %3, align 8
  %33 = getelementptr inbounds i8, i8* %32, i64 4
  %34 = load i8, i8* %33, align 1
  %35 = zext i8 %34 to i32
  %36 = shl i32 %35, 24
  %37 = load i8*, i8** %3, align 8
  %38 = getelementptr inbounds i8, i8* %37, i64 5
  %39 = load i8, i8* %38, align 1
  %40 = zext i8 %39 to i32
  %41 = shl i32 %40, 16
  %42 = or i32 %36, %41
  %43 = load i8*, i8** %3, align 8
  %44 = getelementptr inbounds i8, i8* %43, i64 6
  %45 = load i8, i8* %44, align 1
  %46 = zext i8 %45 to i32
  %47 = shl i32 %46, 8
  %48 = or i32 %42, %47
  %49 = load i8*, i8** %3, align 8
  %50 = getelementptr inbounds i8, i8* %49, i64 7
  %51 = load i8, i8* %50, align 1
  %52 = zext i8 %51 to i32
  %53 = or i32 %48, %52
  %54 = getelementptr inbounds [36 x i32], [36 x i32]* %7, i64 0, i64 1
  store i32 %53, i32* %54, align 4
  %55 = load i8*, i8** %3, align 8
  %56 = getelementptr inbounds i8, i8* %55, i64 8
  %57 = load i8, i8* %56, align 1
  %58 = zext i8 %57 to i32
  %59 = shl i32 %58, 24
  %60 = load i8*, i8** %3, align 8
  %61 = getelementptr inbounds i8, i8* %60, i64 9
  %62 = load i8, i8* %61, align 1
  %63 = zext i8 %62 to i32
  %64 = shl i32 %63, 16
  %65 = or i32 %59, %64
  %66 = load i8*, i8** %3, align 8
  %67 = getelementptr inbounds i8, i8* %66, i64 10
  %68 = load i8, i8* %67, align 1
  %69 = zext i8 %68 to i32
  %70 = shl i32 %69, 8
  %71 = or i32 %65, %70
  %72 = load i8*, i8** %3, align 8
  %73 = getelementptr inbounds i8, i8* %72, i64 11
  %74 = load i8, i8* %73, align 1
  %75 = zext i8 %74 to i32
  %76 = or i32 %71, %75
  %77 = getelementptr inbounds [36 x i32], [36 x i32]* %7, i64 0, i64 2
  store i32 %76, i32* %77, align 8
  %78 = load i8*, i8** %3, align 8
  %79 = getelementptr inbounds i8, i8* %78, i64 12
  %80 = load i8, i8* %79, align 1
  %81 = zext i8 %80 to i32
  %82 = shl i32 %81, 24
  %83 = load i8*, i8** %3, align 8
  %84 = getelementptr inbounds i8, i8* %83, i64 13
  %85 = load i8, i8* %84, align 1
  %86 = zext i8 %85 to i32
  %87 = shl i32 %86, 16
  %88 = or i32 %82, %87
  %89 = load i8*, i8** %3, align 8
  %90 = getelementptr inbounds i8, i8* %89, i64 14
  %91 = load i8, i8* %90, align 1
  %92 = zext i8 %91 to i32
  %93 = shl i32 %92, 8
  %94 = or i32 %88, %93
  %95 = load i8*, i8** %3, align 8
  %96 = getelementptr inbounds i8, i8* %95, i64 15
  %97 = load i8, i8* %96, align 1
  %98 = zext i8 %97 to i32
  %99 = or i32 %94, %98
  %100 = getelementptr inbounds [36 x i32], [36 x i32]* %7, i64 0, i64 3
  store i32 %99, i32* %100, align 4
  %101 = load i32, i32* getelementptr inbounds ([4 x i32], [4 x i32]* @GM_SM4_FK, i64 0, i64 0), align 16
  %102 = getelementptr inbounds [36 x i32], [36 x i32]* %7, i64 0, i64 0
  %103 = load i32, i32* %102, align 16
  %104 = xor i32 %103, %101
  store i32 %104, i32* %102, align 16
  %105 = load i32, i32* getelementptr inbounds ([4 x i32], [4 x i32]* @GM_SM4_FK, i64 0, i64 1), align 4
  %106 = getelementptr inbounds [36 x i32], [36 x i32]* %7, i64 0, i64 1
  %107 = load i32, i32* %106, align 4
  %108 = xor i32 %107, %105
  store i32 %108, i32* %106, align 4
  %109 = load i32, i32* getelementptr inbounds ([4 x i32], [4 x i32]* @GM_SM4_FK, i64 0, i64 2), align 8
  %110 = getelementptr inbounds [36 x i32], [36 x i32]* %7, i64 0, i64 2
  %111 = load i32, i32* %110, align 8
  %112 = xor i32 %111, %109
  store i32 %112, i32* %110, align 8
  %113 = load i32, i32* getelementptr inbounds ([4 x i32], [4 x i32]* @GM_SM4_FK, i64 0, i64 3), align 4
  %114 = getelementptr inbounds [36 x i32], [36 x i32]* %7, i64 0, i64 3
  %115 = load i32, i32* %114, align 4
  %116 = xor i32 %115, %113
  store i32 %116, i32* %114, align 4
  store i32 0, i32* %8, align 4
  br label %117

117:                                              ; preds = %207, %2
  %118 = load i32, i32* %8, align 4
  %119 = icmp slt i32 %118, 32
  br i1 %119, label %120, label %210

120:                                              ; preds = %117
  %121 = load i32, i32* %8, align 4
  %122 = add nsw i32 %121, 1
  %123 = sext i32 %122 to i64
  %124 = getelementptr inbounds [36 x i32], [36 x i32]* %7, i64 0, i64 %123
  %125 = load i32, i32* %124, align 4
  %126 = load i32, i32* %8, align 4
  %127 = add nsw i32 %126, 2
  %128 = sext i32 %127 to i64
  %129 = getelementptr inbounds [36 x i32], [36 x i32]* %7, i64 0, i64 %128
  %130 = load i32, i32* %129, align 4
  %131 = xor i32 %125, %130
  %132 = load i32, i32* %8, align 4
  %133 = add nsw i32 %132, 3
  %134 = sext i32 %133 to i64
  %135 = getelementptr inbounds [36 x i32], [36 x i32]* %7, i64 0, i64 %134
  %136 = load i32, i32* %135, align 4
  %137 = xor i32 %131, %136
  %138 = load i32, i32* %8, align 4
  %139 = sext i32 %138 to i64
  %140 = getelementptr inbounds [32 x i32], [32 x i32]* @GM_SM4_CK, i64 0, i64 %139
  %141 = load i32, i32* %140, align 4
  %142 = xor i32 %137, %141
  store i32 %142, i32* %5, align 4
  %143 = load i32, i32* %5, align 4
  %144 = lshr i32 %143, 24
  %145 = and i32 %144, 255
  %146 = zext i32 %145 to i64
  %147 = getelementptr inbounds [256 x i8], [256 x i8]* @GM_SM4_SBOX, i64 0, i64 %146
  %148 = load i8, i8* %147, align 1
  %149 = zext i8 %148 to i32
  %150 = shl i32 %149, 24
  store i32 %150, i32* %6, align 4
  %151 = load i32, i32* %5, align 4
  %152 = lshr i32 %151, 16
  %153 = and i32 %152, 255
  %154 = zext i32 %153 to i64
  %155 = getelementptr inbounds [256 x i8], [256 x i8]* @GM_SM4_SBOX, i64 0, i64 %154
  %156 = load i8, i8* %155, align 1
  %157 = zext i8 %156 to i32
  %158 = shl i32 %157, 16
  %159 = load i32, i32* %6, align 4
  %160 = or i32 %159, %158
  store i32 %160, i32* %6, align 4
  %161 = load i32, i32* %5, align 4
  %162 = lshr i32 %161, 8
  %163 = and i32 %162, 255
  %164 = zext i32 %163 to i64
  %165 = getelementptr inbounds [256 x i8], [256 x i8]* @GM_SM4_SBOX, i64 0, i64 %164
  %166 = load i8, i8* %165, align 1
  %167 = zext i8 %166 to i32
  %168 = shl i32 %167, 8
  %169 = load i32, i32* %6, align 4
  %170 = or i32 %169, %168
  store i32 %170, i32* %6, align 4
  %171 = load i32, i32* %5, align 4
  %172 = and i32 %171, 255
  %173 = zext i32 %172 to i64
  %174 = getelementptr inbounds [256 x i8], [256 x i8]* @GM_SM4_SBOX, i64 0, i64 %173
  %175 = load i8, i8* %174, align 1
  %176 = zext i8 %175 to i32
  %177 = load i32, i32* %6, align 4
  %178 = or i32 %177, %176
  store i32 %178, i32* %6, align 4
  %179 = load i32, i32* %8, align 4
  %180 = sext i32 %179 to i64
  %181 = getelementptr inbounds [36 x i32], [36 x i32]* %7, i64 0, i64 %180
  %182 = load i32, i32* %181, align 4
  %183 = load i32, i32* %6, align 4
  %184 = load i32, i32* %6, align 4
  %185 = and i32 %184, -1
  %186 = shl i32 %185, 13
  %187 = load i32, i32* %6, align 4
  %188 = lshr i32 %187, 19
  %189 = or i32 %186, %188
  %190 = xor i32 %183, %189
  %191 = load i32, i32* %6, align 4
  %192 = and i32 %191, -1
  %193 = shl i32 %192, 23
  %194 = load i32, i32* %6, align 4
  %195 = lshr i32 %194, 9
  %196 = or i32 %193, %195
  %197 = xor i32 %190, %196
  %198 = xor i32 %182, %197
  %199 = load i32, i32* %8, align 4
  %200 = add nsw i32 %199, 4
  %201 = sext i32 %200 to i64
  %202 = getelementptr inbounds [36 x i32], [36 x i32]* %7, i64 0, i64 %201
  store i32 %198, i32* %202, align 4
  %203 = load i32*, i32** %4, align 8
  %204 = load i32, i32* %8, align 4
  %205 = sext i32 %204 to i64
  %206 = getelementptr inbounds i32, i32* %203, i64 %205
  store i32 %198, i32* %206, align 4
  br label %207

207:                                              ; preds = %120
  %208 = load i32, i32* %8, align 4
  %209 = add nsw i32 %208, 1
  store i32 %209, i32* %8, align 4
  br label %117, !llvm.loop !14

210:                                              ; preds = %117
  ret void
}

; Function Attrs: mustprogress noinline nounwind optnone uwtable
define dso_local void @_ZN11CryptoUtils12gm_sm4_cryptEPKhiS1_Ph(i8* noundef %0, i32 noundef %1, i8* noundef %2, i8* noundef %3) #7 align 2 {
  %5 = alloca i8*, align 8
  %6 = alloca i32, align 4
  %7 = alloca i8*, align 8
  %8 = alloca i8*, align 8
  %9 = alloca [32 x i32], align 16
  %10 = alloca [36 x i32], align 16
  %11 = alloca i32, align 4
  %12 = alloca i32, align 4
  %13 = alloca i32, align 4
  %14 = alloca i32, align 4
  store i8* %0, i8** %5, align 8
  store i32 %1, i32* %6, align 4
  store i8* %2, i8** %7, align 8
  store i8* %3, i8** %8, align 8
  %15 = load i8*, i8** %5, align 8
  %16 = getelementptr inbounds [32 x i32], [32 x i32]* %9, i64 0, i64 0
  call void @_ZN11CryptoUtils16sm4_key_scheduleEPKhPj(i8* noundef %15, i32* noundef %16)
  %17 = load i8*, i8** %7, align 8
  %18 = getelementptr inbounds i8, i8* %17, i64 0
  %19 = load i8, i8* %18, align 1
  %20 = zext i8 %19 to i32
  %21 = shl i32 %20, 24
  %22 = load i8*, i8** %7, align 8
  %23 = getelementptr inbounds i8, i8* %22, i64 1
  %24 = load i8, i8* %23, align 1
  %25 = zext i8 %24 to i32
  %26 = shl i32 %25, 16
  %27 = or i32 %21, %26
  %28 = load i8*, i8** %7, align 8
  %29 = getelementptr inbounds i8, i8* %28, i64 2
  %30 = load i8, i8* %29, align 1
  %31 = zext i8 %30 to i32
  %32 = shl i32 %31, 8
  %33 = or i32 %27, %32
  %34 = load i8*, i8** %7, align 8
  %35 = getelementptr inbounds i8, i8* %34, i64 3
  %36 = load i8, i8* %35, align 1
  %37 = zext i8 %36 to i32
  %38 = or i32 %33, %37
  %39 = getelementptr inbounds [36 x i32], [36 x i32]* %10, i64 0, i64 0
  store i32 %38, i32* %39, align 16
  %40 = load i8*, i8** %7, align 8
  %41 = getelementptr inbounds i8, i8* %40, i64 4
  %42 = load i8, i8* %41, align 1
  %43 = zext i8 %42 to i32
  %44 = shl i32 %43, 24
  %45 = load i8*, i8** %7, align 8
  %46 = getelementptr inbounds i8, i8* %45, i64 5
  %47 = load i8, i8* %46, align 1
  %48 = zext i8 %47 to i32
  %49 = shl i32 %48, 16
  %50 = or i32 %44, %49
  %51 = load i8*, i8** %7, align 8
  %52 = getelementptr inbounds i8, i8* %51, i64 6
  %53 = load i8, i8* %52, align 1
  %54 = zext i8 %53 to i32
  %55 = shl i32 %54, 8
  %56 = or i32 %50, %55
  %57 = load i8*, i8** %7, align 8
  %58 = getelementptr inbounds i8, i8* %57, i64 7
  %59 = load i8, i8* %58, align 1
  %60 = zext i8 %59 to i32
  %61 = or i32 %56, %60
  %62 = getelementptr inbounds [36 x i32], [36 x i32]* %10, i64 0, i64 1
  store i32 %61, i32* %62, align 4
  %63 = load i8*, i8** %7, align 8
  %64 = getelementptr inbounds i8, i8* %63, i64 8
  %65 = load i8, i8* %64, align 1
  %66 = zext i8 %65 to i32
  %67 = shl i32 %66, 24
  %68 = load i8*, i8** %7, align 8
  %69 = getelementptr inbounds i8, i8* %68, i64 9
  %70 = load i8, i8* %69, align 1
  %71 = zext i8 %70 to i32
  %72 = shl i32 %71, 16
  %73 = or i32 %67, %72
  %74 = load i8*, i8** %7, align 8
  %75 = getelementptr inbounds i8, i8* %74, i64 10
  %76 = load i8, i8* %75, align 1
  %77 = zext i8 %76 to i32
  %78 = shl i32 %77, 8
  %79 = or i32 %73, %78
  %80 = load i8*, i8** %7, align 8
  %81 = getelementptr inbounds i8, i8* %80, i64 11
  %82 = load i8, i8* %81, align 1
  %83 = zext i8 %82 to i32
  %84 = or i32 %79, %83
  %85 = getelementptr inbounds [36 x i32], [36 x i32]* %10, i64 0, i64 2
  store i32 %84, i32* %85, align 8
  %86 = load i8*, i8** %7, align 8
  %87 = getelementptr inbounds i8, i8* %86, i64 12
  %88 = load i8, i8* %87, align 1
  %89 = zext i8 %88 to i32
  %90 = shl i32 %89, 24
  %91 = load i8*, i8** %7, align 8
  %92 = getelementptr inbounds i8, i8* %91, i64 13
  %93 = load i8, i8* %92, align 1
  %94 = zext i8 %93 to i32
  %95 = shl i32 %94, 16
  %96 = or i32 %90, %95
  %97 = load i8*, i8** %7, align 8
  %98 = getelementptr inbounds i8, i8* %97, i64 14
  %99 = load i8, i8* %98, align 1
  %100 = zext i8 %99 to i32
  %101 = shl i32 %100, 8
  %102 = or i32 %96, %101
  %103 = load i8*, i8** %7, align 8
  %104 = getelementptr inbounds i8, i8* %103, i64 15
  %105 = load i8, i8* %104, align 1
  %106 = zext i8 %105 to i32
  %107 = or i32 %102, %106
  %108 = getelementptr inbounds [36 x i32], [36 x i32]* %10, i64 0, i64 3
  store i32 %107, i32* %108, align 4
  store i32 0, i32* %13, align 4
  br label %109

109:                                              ; preds = %218, %4
  %110 = load i32, i32* %13, align 4
  %111 = icmp slt i32 %110, 32
  br i1 %111, label %112, label %221

112:                                              ; preds = %109
  %113 = load i32, i32* %13, align 4
  %114 = add nsw i32 %113, 1
  %115 = sext i32 %114 to i64
  %116 = getelementptr inbounds [36 x i32], [36 x i32]* %10, i64 0, i64 %115
  %117 = load i32, i32* %116, align 4
  %118 = load i32, i32* %13, align 4
  %119 = add nsw i32 %118, 2
  %120 = sext i32 %119 to i64
  %121 = getelementptr inbounds [36 x i32], [36 x i32]* %10, i64 0, i64 %120
  %122 = load i32, i32* %121, align 4
  %123 = xor i32 %117, %122
  %124 = load i32, i32* %13, align 4
  %125 = add nsw i32 %124, 3
  %126 = sext i32 %125 to i64
  %127 = getelementptr inbounds [36 x i32], [36 x i32]* %10, i64 0, i64 %126
  %128 = load i32, i32* %127, align 4
  %129 = xor i32 %123, %128
  %130 = load i32, i32* %6, align 4
  %131 = icmp eq i32 %130, 0
  br i1 %131, label %132, label %134

132:                                              ; preds = %112
  %133 = load i32, i32* %13, align 4
  br label %137

134:                                              ; preds = %112
  %135 = load i32, i32* %13, align 4
  %136 = sub nsw i32 31, %135
  br label %137

137:                                              ; preds = %134, %132
  %138 = phi i32 [ %133, %132 ], [ %136, %134 ]
  %139 = sext i32 %138 to i64
  %140 = getelementptr inbounds [32 x i32], [32 x i32]* %9, i64 0, i64 %139
  %141 = load i32, i32* %140, align 4
  %142 = xor i32 %129, %141
  store i32 %142, i32* %11, align 4
  %143 = load i32, i32* %11, align 4
  %144 = lshr i32 %143, 24
  %145 = and i32 %144, 255
  %146 = zext i32 %145 to i64
  %147 = getelementptr inbounds [256 x i8], [256 x i8]* @GM_SM4_SBOX, i64 0, i64 %146
  %148 = load i8, i8* %147, align 1
  %149 = zext i8 %148 to i32
  %150 = shl i32 %149, 24
  store i32 %150, i32* %12, align 4
  %151 = load i32, i32* %11, align 4
  %152 = lshr i32 %151, 16
  %153 = and i32 %152, 255
  %154 = zext i32 %153 to i64
  %155 = getelementptr inbounds [256 x i8], [256 x i8]* @GM_SM4_SBOX, i64 0, i64 %154
  %156 = load i8, i8* %155, align 1
  %157 = zext i8 %156 to i32
  %158 = shl i32 %157, 16
  %159 = load i32, i32* %12, align 4
  %160 = or i32 %159, %158
  store i32 %160, i32* %12, align 4
  %161 = load i32, i32* %11, align 4
  %162 = lshr i32 %161, 8
  %163 = and i32 %162, 255
  %164 = zext i32 %163 to i64
  %165 = getelementptr inbounds [256 x i8], [256 x i8]* @GM_SM4_SBOX, i64 0, i64 %164
  %166 = load i8, i8* %165, align 1
  %167 = zext i8 %166 to i32
  %168 = shl i32 %167, 8
  %169 = load i32, i32* %12, align 4
  %170 = or i32 %169, %168
  store i32 %170, i32* %12, align 4
  %171 = load i32, i32* %11, align 4
  %172 = and i32 %171, 255
  %173 = zext i32 %172 to i64
  %174 = getelementptr inbounds [256 x i8], [256 x i8]* @GM_SM4_SBOX, i64 0, i64 %173
  %175 = load i8, i8* %174, align 1
  %176 = zext i8 %175 to i32
  %177 = load i32, i32* %12, align 4
  %178 = or i32 %177, %176
  store i32 %178, i32* %12, align 4
  %179 = load i32, i32* %12, align 4
  %180 = load i32, i32* %12, align 4
  %181 = and i32 %180, -1
  %182 = shl i32 %181, 2
  %183 = load i32, i32* %12, align 4
  %184 = lshr i32 %183, 30
  %185 = or i32 %182, %184
  %186 = xor i32 %179, %185
  %187 = load i32, i32* %12, align 4
  %188 = and i32 %187, -1
  %189 = shl i32 %188, 10
  %190 = load i32, i32* %12, align 4
  %191 = lshr i32 %190, 22
  %192 = or i32 %189, %191
  %193 = xor i32 %186, %192
  %194 = load i32, i32* %12, align 4
  %195 = and i32 %194, -1
  %196 = shl i32 %195, 18
  %197 = load i32, i32* %12, align 4
  %198 = lshr i32 %197, 14
  %199 = or i32 %196, %198
  %200 = xor i32 %193, %199
  %201 = load i32, i32* %12, align 4
  %202 = and i32 %201, -1
  %203 = shl i32 %202, 24
  %204 = load i32, i32* %12, align 4
  %205 = lshr i32 %204, 8
  %206 = or i32 %203, %205
  %207 = xor i32 %200, %206
  store i32 %207, i32* %14, align 4
  %208 = load i32, i32* %13, align 4
  %209 = sext i32 %208 to i64
  %210 = getelementptr inbounds [36 x i32], [36 x i32]* %10, i64 0, i64 %209
  %211 = load i32, i32* %210, align 4
  %212 = load i32, i32* %14, align 4
  %213 = xor i32 %211, %212
  %214 = load i32, i32* %13, align 4
  %215 = add nsw i32 %214, 4
  %216 = sext i32 %215 to i64
  %217 = getelementptr inbounds [36 x i32], [36 x i32]* %10, i64 0, i64 %216
  store i32 %213, i32* %217, align 4
  br label %218

218:                                              ; preds = %137
  %219 = load i32, i32* %13, align 4
  %220 = add nsw i32 %219, 1
  store i32 %220, i32* %13, align 4
  br label %109, !llvm.loop !15

221:                                              ; preds = %109
  %222 = getelementptr inbounds [36 x i32], [36 x i32]* %10, i64 0, i64 35
  %223 = load i32, i32* %222, align 4
  %224 = lshr i32 %223, 24
  %225 = trunc i32 %224 to i8
  %226 = load i8*, i8** %8, align 8
  %227 = getelementptr inbounds i8, i8* %226, i64 0
  store i8 %225, i8* %227, align 1
  %228 = getelementptr inbounds [36 x i32], [36 x i32]* %10, i64 0, i64 35
  %229 = load i32, i32* %228, align 4
  %230 = lshr i32 %229, 16
  %231 = trunc i32 %230 to i8
  %232 = load i8*, i8** %8, align 8
  %233 = getelementptr inbounds i8, i8* %232, i64 1
  store i8 %231, i8* %233, align 1
  %234 = getelementptr inbounds [36 x i32], [36 x i32]* %10, i64 0, i64 35
  %235 = load i32, i32* %234, align 4
  %236 = lshr i32 %235, 8
  %237 = trunc i32 %236 to i8
  %238 = load i8*, i8** %8, align 8
  %239 = getelementptr inbounds i8, i8* %238, i64 2
  store i8 %237, i8* %239, align 1
  %240 = getelementptr inbounds [36 x i32], [36 x i32]* %10, i64 0, i64 35
  %241 = load i32, i32* %240, align 4
  %242 = trunc i32 %241 to i8
  %243 = load i8*, i8** %8, align 8
  %244 = getelementptr inbounds i8, i8* %243, i64 3
  store i8 %242, i8* %244, align 1
  %245 = getelementptr inbounds [36 x i32], [36 x i32]* %10, i64 0, i64 34
  %246 = load i32, i32* %245, align 8
  %247 = lshr i32 %246, 24
  %248 = trunc i32 %247 to i8
  %249 = load i8*, i8** %8, align 8
  %250 = getelementptr inbounds i8, i8* %249, i64 4
  store i8 %248, i8* %250, align 1
  %251 = getelementptr inbounds [36 x i32], [36 x i32]* %10, i64 0, i64 34
  %252 = load i32, i32* %251, align 8
  %253 = lshr i32 %252, 16
  %254 = trunc i32 %253 to i8
  %255 = load i8*, i8** %8, align 8
  %256 = getelementptr inbounds i8, i8* %255, i64 5
  store i8 %254, i8* %256, align 1
  %257 = getelementptr inbounds [36 x i32], [36 x i32]* %10, i64 0, i64 34
  %258 = load i32, i32* %257, align 8
  %259 = lshr i32 %258, 8
  %260 = trunc i32 %259 to i8
  %261 = load i8*, i8** %8, align 8
  %262 = getelementptr inbounds i8, i8* %261, i64 6
  store i8 %260, i8* %262, align 1
  %263 = getelementptr inbounds [36 x i32], [36 x i32]* %10, i64 0, i64 34
  %264 = load i32, i32* %263, align 8
  %265 = trunc i32 %264 to i8
  %266 = load i8*, i8** %8, align 8
  %267 = getelementptr inbounds i8, i8* %266, i64 7
  store i8 %265, i8* %267, align 1
  %268 = getelementptr inbounds [36 x i32], [36 x i32]* %10, i64 0, i64 33
  %269 = load i32, i32* %268, align 4
  %270 = lshr i32 %269, 24
  %271 = trunc i32 %270 to i8
  %272 = load i8*, i8** %8, align 8
  %273 = getelementptr inbounds i8, i8* %272, i64 8
  store i8 %271, i8* %273, align 1
  %274 = getelementptr inbounds [36 x i32], [36 x i32]* %10, i64 0, i64 33
  %275 = load i32, i32* %274, align 4
  %276 = lshr i32 %275, 16
  %277 = trunc i32 %276 to i8
  %278 = load i8*, i8** %8, align 8
  %279 = getelementptr inbounds i8, i8* %278, i64 9
  store i8 %277, i8* %279, align 1
  %280 = getelementptr inbounds [36 x i32], [36 x i32]* %10, i64 0, i64 33
  %281 = load i32, i32* %280, align 4
  %282 = lshr i32 %281, 8
  %283 = trunc i32 %282 to i8
  %284 = load i8*, i8** %8, align 8
  %285 = getelementptr inbounds i8, i8* %284, i64 10
  store i8 %283, i8* %285, align 1
  %286 = getelementptr inbounds [36 x i32], [36 x i32]* %10, i64 0, i64 33
  %287 = load i32, i32* %286, align 4
  %288 = trunc i32 %287 to i8
  %289 = load i8*, i8** %8, align 8
  %290 = getelementptr inbounds i8, i8* %289, i64 11
  store i8 %288, i8* %290, align 1
  %291 = getelementptr inbounds [36 x i32], [36 x i32]* %10, i64 0, i64 32
  %292 = load i32, i32* %291, align 16
  %293 = lshr i32 %292, 24
  %294 = trunc i32 %293 to i8
  %295 = load i8*, i8** %8, align 8
  %296 = getelementptr inbounds i8, i8* %295, i64 12
  store i8 %294, i8* %296, align 1
  %297 = getelementptr inbounds [36 x i32], [36 x i32]* %10, i64 0, i64 32
  %298 = load i32, i32* %297, align 16
  %299 = lshr i32 %298, 16
  %300 = trunc i32 %299 to i8
  %301 = load i8*, i8** %8, align 8
  %302 = getelementptr inbounds i8, i8* %301, i64 13
  store i8 %300, i8* %302, align 1
  %303 = getelementptr inbounds [36 x i32], [36 x i32]* %10, i64 0, i64 32
  %304 = load i32, i32* %303, align 16
  %305 = lshr i32 %304, 8
  %306 = trunc i32 %305 to i8
  %307 = load i8*, i8** %8, align 8
  %308 = getelementptr inbounds i8, i8* %307, i64 14
  store i8 %306, i8* %308, align 1
  %309 = getelementptr inbounds [36 x i32], [36 x i32]* %10, i64 0, i64 32
  %310 = load i32, i32* %309, align 16
  %311 = trunc i32 %310 to i8
  %312 = load i8*, i8** %8, align 8
  %313 = getelementptr inbounds i8, i8* %312, i64 15
  store i8 %311, i8* %313, align 1
  ret void
}

; Function Attrs: mustprogress noinline nounwind optnone uwtable
define dso_local void @_ZN11CryptoUtils11test_gm_sm4EPKhiPhS1_(i8* noundef %0, i32 noundef %1, i8* noundef %2, i8* noundef %3) #7 align 2 {
  %5 = alloca i8*, align 8
  %6 = alloca i32, align 4
  %7 = alloca i8*, align 8
  %8 = alloca i8*, align 8
  %9 = alloca i32, align 4
  store i8* %0, i8** %5, align 8
  store i32 %1, i32* %6, align 4
  store i8* %2, i8** %7, align 8
  store i8* %3, i8** %8, align 8
  store i32 0, i32* %9, align 4
  store i32 0, i32* %9, align 4
  br label %10

10:                                               ; preds = %18, %4
  %11 = load i32, i32* %9, align 4
  %12 = icmp slt i32 %11, 100000
  br i1 %12, label %13, label %21

13:                                               ; preds = %10
  %14 = load i8*, i8** %5, align 8
  %15 = load i32, i32* %6, align 4
  %16 = load i8*, i8** %7, align 8
  %17 = load i8*, i8** %7, align 8
  call void @_ZN11CryptoUtils12gm_sm4_cryptEPKhiS1_Ph(i8* noundef %14, i32 noundef %15, i8* noundef %16, i8* noundef %17)
  br label %18

18:                                               ; preds = %13
  %19 = load i32, i32* %9, align 4
  %20 = add nsw i32 %19, 1
  store i32 %20, i32* %9, align 4
  br label %10, !llvm.loop !16

21:                                               ; preds = %10
  ret void
}

; Function Attrs: mustprogress noinline nounwind optnone uwtable
define dso_local void @_ZN11CryptoUtils11gm_sm4_initEP14gm_sm4_contextPKhiiS3_(%struct.gm_sm4_context* noundef %0, i8* noundef %1, i32 noundef %2, i32 noundef %3, i8* noundef %4) #7 align 2 {
  %6 = alloca %struct.gm_sm4_context*, align 8
  %7 = alloca i8*, align 8
  %8 = alloca i32, align 4
  %9 = alloca i32, align 4
  %10 = alloca i8*, align 8
  store %struct.gm_sm4_context* %0, %struct.gm_sm4_context** %6, align 8
  store i8* %1, i8** %7, align 8
  store i32 %2, i32* %8, align 4
  store i32 %3, i32* %9, align 4
  store i8* %4, i8** %10, align 8
  %11 = load i8*, i8** %7, align 8
  %12 = load %struct.gm_sm4_context*, %struct.gm_sm4_context** %6, align 8
  %13 = getelementptr inbounds %struct.gm_sm4_context, %struct.gm_sm4_context* %12, i32 0, i32 0
  %14 = getelementptr inbounds [32 x i32], [32 x i32]* %13, i64 0, i64 0
  call void @_ZN11CryptoUtils16sm4_key_scheduleEPKhPj(i8* noundef %11, i32* noundef %14)
  %15 = load %struct.gm_sm4_context*, %struct.gm_sm4_context** %6, align 8
  %16 = getelementptr inbounds %struct.gm_sm4_context, %struct.gm_sm4_context* %15, i32 0, i32 4
  store i32 0, i32* %16, align 4
  %17 = load %struct.gm_sm4_context*, %struct.gm_sm4_context** %6, align 8
  %18 = getelementptr inbounds %struct.gm_sm4_context, %struct.gm_sm4_context* %17, i32 0, i32 3
  store i32 0, i32* %18, align 4
  %19 = load %struct.gm_sm4_context*, %struct.gm_sm4_context** %6, align 8
  %20 = getelementptr inbounds %struct.gm_sm4_context, %struct.gm_sm4_context* %19, i32 0, i32 5
  store i32 0, i32* %20, align 4
  %21 = load i32, i32* %8, align 4
  %22 = icmp ne i32 %21, 0
  br i1 %22, label %23, label %28

23:                                               ; preds = %5
  %24 = load %struct.gm_sm4_context*, %struct.gm_sm4_context** %6, align 8
  %25 = getelementptr inbounds %struct.gm_sm4_context, %struct.gm_sm4_context* %24, i32 0, i32 5
  %26 = load i32, i32* %25, align 4
  %27 = or i32 %26, 1
  store i32 %27, i32* %25, align 4
  br label %28

28:                                               ; preds = %23, %5
  %29 = load i32, i32* %9, align 4
  %30 = icmp ne i32 %29, 0
  br i1 %30, label %31, label %36

31:                                               ; preds = %28
  %32 = load %struct.gm_sm4_context*, %struct.gm_sm4_context** %6, align 8
  %33 = getelementptr inbounds %struct.gm_sm4_context, %struct.gm_sm4_context* %32, i32 0, i32 5
  %34 = load i32, i32* %33, align 4
  %35 = or i32 %34, 2
  store i32 %35, i32* %33, align 4
  br label %36

36:                                               ; preds = %31, %28
  %37 = load i8*, i8** %10, align 8
  %38 = icmp ne i8* %37, null
  br i1 %38, label %39, label %48

39:                                               ; preds = %36
  %40 = load %struct.gm_sm4_context*, %struct.gm_sm4_context** %6, align 8
  %41 = getelementptr inbounds %struct.gm_sm4_context, %struct.gm_sm4_context* %40, i32 0, i32 2
  %42 = getelementptr inbounds [16 x i8], [16 x i8]* %41, i64 0, i64 0
  %43 = load i8*, i8** %10, align 8
  call void @llvm.memcpy.p0i8.p0i8.i64(i8* align 4 %42, i8* align 1 %43, i64 16, i1 false)
  %44 = load %struct.gm_sm4_context*, %struct.gm_sm4_context** %6, align 8
  %45 = getelementptr inbounds %struct.gm_sm4_context, %struct.gm_sm4_context* %44, i32 0, i32 5
  %46 = load i32, i32* %45, align 4
  %47 = or i32 %46, 4
  store i32 %47, i32* %45, align 4
  br label %48

48:                                               ; preds = %39, %36
  ret void
}

; Function Attrs: mustprogress noinline optnone uwtable
define dso_local noundef i32 @_ZN11CryptoUtils13gm_sm4_updateEP14gm_sm4_contextPKhjPh(%struct.gm_sm4_context* noundef %0, i8* noundef %1, i32 noundef %2, i8* noundef %3) #5 align 2 {
  %5 = alloca %struct.gm_sm4_context*, align 8
  %6 = alloca i8*, align 8
  %7 = alloca i32, align 4
  %8 = alloca i8*, align 8
  %9 = alloca i32, align 4
  store %struct.gm_sm4_context* %0, %struct.gm_sm4_context** %5, align 8
  store i8* %1, i8** %6, align 8
  store i32 %2, i32* %7, align 4
  store i8* %3, i8** %8, align 8
  store i32 0, i32* %9, align 4
  br label %10

10:                                               ; preds = %41, %4
  %11 = load %struct.gm_sm4_context*, %struct.gm_sm4_context** %5, align 8
  %12 = getelementptr inbounds %struct.gm_sm4_context, %struct.gm_sm4_context* %11, i32 0, i32 3
  %13 = load i32, i32* %12, align 4
  %14 = icmp eq i32 %13, 16
  br i1 %14, label %15, label %29

15:                                               ; preds = %10
  %16 = load %struct.gm_sm4_context*, %struct.gm_sm4_context** %5, align 8
  %17 = load i8*, i8** %8, align 8
  %18 = load i32, i32* %9, align 4
  %19 = sext i32 %18 to i64
  %20 = getelementptr inbounds i8, i8* %17, i64 %19
  call void @_ZL16update_one_roundP14gm_sm4_contextPh(%struct.gm_sm4_context* noundef %16, i8* noundef %20)
  %21 = load %struct.gm_sm4_context*, %struct.gm_sm4_context** %5, align 8
  %22 = getelementptr inbounds %struct.gm_sm4_context, %struct.gm_sm4_context* %21, i32 0, i32 4
  %23 = load i32, i32* %22, align 4
  %24 = add i32 %23, 16
  store i32 %24, i32* %22, align 4
  %25 = load %struct.gm_sm4_context*, %struct.gm_sm4_context** %5, align 8
  %26 = getelementptr inbounds %struct.gm_sm4_context, %struct.gm_sm4_context* %25, i32 0, i32 3
  store i32 0, i32* %26, align 4
  %27 = load i32, i32* %9, align 4
  %28 = add nsw i32 %27, 16
  store i32 %28, i32* %9, align 4
  br label %29

29:                                               ; preds = %15, %10
  %30 = load i8*, i8** %6, align 8
  %31 = getelementptr inbounds i8, i8* %30, i32 1
  store i8* %31, i8** %6, align 8
  %32 = load i8, i8* %30, align 1
  %33 = load %struct.gm_sm4_context*, %struct.gm_sm4_context** %5, align 8
  %34 = getelementptr inbounds %struct.gm_sm4_context, %struct.gm_sm4_context* %33, i32 0, i32 1
  %35 = load %struct.gm_sm4_context*, %struct.gm_sm4_context** %5, align 8
  %36 = getelementptr inbounds %struct.gm_sm4_context, %struct.gm_sm4_context* %35, i32 0, i32 3
  %37 = load i32, i32* %36, align 4
  %38 = add i32 %37, 1
  store i32 %38, i32* %36, align 4
  %39 = zext i32 %37 to i64
  %40 = getelementptr inbounds [16 x i8], [16 x i8]* %34, i64 0, i64 %39
  store i8 %32, i8* %40, align 1
  br label %41

41:                                               ; preds = %29
  %42 = load i32, i32* %7, align 4
  %43 = add i32 %42, -1
  store i32 %43, i32* %7, align 4
  %44 = icmp ne i32 %43, 0
  br i1 %44, label %10, label %45, !llvm.loop !17

45:                                               ; preds = %41
  %46 = load i32, i32* %9, align 4
  ret i32 %46
}

; Function Attrs: mustprogress noinline optnone uwtable
define internal void @_ZL16update_one_roundP14gm_sm4_contextPh(%struct.gm_sm4_context* noundef %0, i8* noundef %1) #5 {
  %3 = alloca %struct.gm_sm4_context*, align 8
  %4 = alloca i8*, align 8
  %5 = alloca i32, align 4
  %6 = alloca i32, align 4
  store %struct.gm_sm4_context* %0, %struct.gm_sm4_context** %3, align 8
  store i8* %1, i8** %4, align 8
  %7 = load %struct.gm_sm4_context*, %struct.gm_sm4_context** %3, align 8
  %8 = getelementptr inbounds %struct.gm_sm4_context, %struct.gm_sm4_context* %7, i32 0, i32 5
  %9 = load i32, i32* %8, align 4
  %10 = and i32 %9, 4
  %11 = icmp ugt i32 %10, 0
  %12 = zext i1 %11 to i32
  store i32 %12, i32* %5, align 4
  %13 = load %struct.gm_sm4_context*, %struct.gm_sm4_context** %3, align 8
  %14 = getelementptr inbounds %struct.gm_sm4_context, %struct.gm_sm4_context* %13, i32 0, i32 5
  %15 = load i32, i32* %14, align 4
  %16 = and i32 %15, 1
  %17 = icmp ne i32 %16, 0
  br i1 %17, label %18, label %62

18:                                               ; preds = %2
  %19 = load i32, i32* %5, align 4
  %20 = icmp ne i32 %19, 0
  br i1 %20, label %21, label %46

21:                                               ; preds = %18
  store i32 0, i32* %6, align 4
  br label %22

22:                                               ; preds = %42, %21
  %23 = load i32, i32* %6, align 4
  %24 = icmp slt i32 %23, 16
  br i1 %24, label %25, label %45

25:                                               ; preds = %22
  %26 = load %struct.gm_sm4_context*, %struct.gm_sm4_context** %3, align 8
  %27 = getelementptr inbounds %struct.gm_sm4_context, %struct.gm_sm4_context* %26, i32 0, i32 2
  %28 = load i32, i32* %6, align 4
  %29 = sext i32 %28 to i64
  %30 = getelementptr inbounds [16 x i8], [16 x i8]* %27, i64 0, i64 %29
  %31 = load i8, i8* %30, align 1
  %32 = zext i8 %31 to i32
  %33 = load %struct.gm_sm4_context*, %struct.gm_sm4_context** %3, align 8
  %34 = getelementptr inbounds %struct.gm_sm4_context, %struct.gm_sm4_context* %33, i32 0, i32 1
  %35 = load i32, i32* %6, align 4
  %36 = sext i32 %35 to i64
  %37 = getelementptr inbounds [16 x i8], [16 x i8]* %34, i64 0, i64 %36
  %38 = load i8, i8* %37, align 1
  %39 = zext i8 %38 to i32
  %40 = xor i32 %39, %32
  %41 = trunc i32 %40 to i8
  store i8 %41, i8* %37, align 1
  br label %42

42:                                               ; preds = %25
  %43 = load i32, i32* %6, align 4
  %44 = add nsw i32 %43, 1
  store i32 %44, i32* %6, align 4
  br label %22, !llvm.loop !18

45:                                               ; preds = %22
  br label %46

46:                                               ; preds = %45, %18
  %47 = load %struct.gm_sm4_context*, %struct.gm_sm4_context** %3, align 8
  %48 = getelementptr inbounds %struct.gm_sm4_context, %struct.gm_sm4_context* %47, i32 0, i32 0
  %49 = getelementptr inbounds [32 x i32], [32 x i32]* %48, i64 0, i64 0
  %50 = load %struct.gm_sm4_context*, %struct.gm_sm4_context** %3, align 8
  %51 = getelementptr inbounds %struct.gm_sm4_context, %struct.gm_sm4_context* %50, i32 0, i32 1
  %52 = getelementptr inbounds [16 x i8], [16 x i8]* %51, i64 0, i64 0
  %53 = load i8*, i8** %4, align 8
  call void @_ZL9one_roundPjiPKhPh(i32* noundef %49, i32 noundef 1, i8* noundef %52, i8* noundef %53)
  %54 = load i32, i32* %5, align 4
  %55 = icmp ne i32 %54, 0
  br i1 %55, label %56, label %61

56:                                               ; preds = %46
  %57 = load %struct.gm_sm4_context*, %struct.gm_sm4_context** %3, align 8
  %58 = getelementptr inbounds %struct.gm_sm4_context, %struct.gm_sm4_context* %57, i32 0, i32 2
  %59 = getelementptr inbounds [16 x i8], [16 x i8]* %58, i64 0, i64 0
  %60 = load i8*, i8** %4, align 8
  call void @llvm.memcpy.p0i8.p0i8.i64(i8* align 4 %59, i8* align 1 %60, i64 16, i1 false)
  br label %61

61:                                               ; preds = %56, %46
  br label %108

62:                                               ; preds = %2
  %63 = load %struct.gm_sm4_context*, %struct.gm_sm4_context** %3, align 8
  %64 = getelementptr inbounds %struct.gm_sm4_context, %struct.gm_sm4_context* %63, i32 0, i32 0
  %65 = getelementptr inbounds [32 x i32], [32 x i32]* %64, i64 0, i64 0
  %66 = load %struct.gm_sm4_context*, %struct.gm_sm4_context** %3, align 8
  %67 = getelementptr inbounds %struct.gm_sm4_context, %struct.gm_sm4_context* %66, i32 0, i32 1
  %68 = getelementptr inbounds [16 x i8], [16 x i8]* %67, i64 0, i64 0
  %69 = load i8*, i8** %4, align 8
  call void @_ZL9one_roundPjiPKhPh(i32* noundef %65, i32 noundef 0, i8* noundef %68, i8* noundef %69)
  %70 = load i32, i32* %5, align 4
  %71 = icmp ne i32 %70, 0
  br i1 %71, label %72, label %107

72:                                               ; preds = %62
  store i32 0, i32* %6, align 4
  br label %73

73:                                               ; preds = %103, %72
  %74 = load i32, i32* %6, align 4
  %75 = icmp slt i32 %74, 16
  br i1 %75, label %76, label %106

76:                                               ; preds = %73
  %77 = load %struct.gm_sm4_context*, %struct.gm_sm4_context** %3, align 8
  %78 = getelementptr inbounds %struct.gm_sm4_context, %struct.gm_sm4_context* %77, i32 0, i32 2
  %79 = load i32, i32* %6, align 4
  %80 = sext i32 %79 to i64
  %81 = getelementptr inbounds [16 x i8], [16 x i8]* %78, i64 0, i64 %80
  %82 = load i8, i8* %81, align 1
  %83 = zext i8 %82 to i32
  %84 = load i8*, i8** %4, align 8
  %85 = load i32, i32* %6, align 4
  %86 = sext i32 %85 to i64
  %87 = getelementptr inbounds i8, i8* %84, i64 %86
  %88 = load i8, i8* %87, align 1
  %89 = zext i8 %88 to i32
  %90 = xor i32 %89, %83
  %91 = trunc i32 %90 to i8
  store i8 %91, i8* %87, align 1
  %92 = load %struct.gm_sm4_context*, %struct.gm_sm4_context** %3, align 8
  %93 = getelementptr inbounds %struct.gm_sm4_context, %struct.gm_sm4_context* %92, i32 0, i32 1
  %94 = load i32, i32* %6, align 4
  %95 = sext i32 %94 to i64
  %96 = getelementptr inbounds [16 x i8], [16 x i8]* %93, i64 0, i64 %95
  %97 = load i8, i8* %96, align 1
  %98 = load %struct.gm_sm4_context*, %struct.gm_sm4_context** %3, align 8
  %99 = getelementptr inbounds %struct.gm_sm4_context, %struct.gm_sm4_context* %98, i32 0, i32 2
  %100 = load i32, i32* %6, align 4
  %101 = sext i32 %100 to i64
  %102 = getelementptr inbounds [16 x i8], [16 x i8]* %99, i64 0, i64 %101
  store i8 %97, i8* %102, align 1
  br label %103

103:                                              ; preds = %76
  %104 = load i32, i32* %6, align 4
  %105 = add nsw i32 %104, 1
  store i32 %105, i32* %6, align 4
  br label %73, !llvm.loop !19

106:                                              ; preds = %73
  br label %107

107:                                              ; preds = %106, %62
  br label %108

108:                                              ; preds = %107, %61
  ret void
}

; Function Attrs: mustprogress noinline nounwind optnone uwtable
define internal void @_ZL9one_roundPjiPKhPh(i32* noundef %0, i32 noundef %1, i8* noundef %2, i8* noundef %3) #7 {
  %5 = alloca i32*, align 8
  %6 = alloca i32, align 4
  %7 = alloca i8*, align 8
  %8 = alloca i8*, align 8
  %9 = alloca [36 x i32], align 16
  %10 = alloca i32, align 4
  %11 = alloca i32, align 4
  %12 = alloca i32, align 4
  %13 = alloca i32, align 4
  store i32* %0, i32** %5, align 8
  store i32 %1, i32* %6, align 4
  store i8* %2, i8** %7, align 8
  store i8* %3, i8** %8, align 8
  %14 = load i8*, i8** %7, align 8
  %15 = getelementptr inbounds i8, i8* %14, i64 0
  %16 = load i8, i8* %15, align 1
  %17 = zext i8 %16 to i32
  %18 = shl i32 %17, 24
  %19 = load i8*, i8** %7, align 8
  %20 = getelementptr inbounds i8, i8* %19, i64 1
  %21 = load i8, i8* %20, align 1
  %22 = zext i8 %21 to i32
  %23 = shl i32 %22, 16
  %24 = or i32 %18, %23
  %25 = load i8*, i8** %7, align 8
  %26 = getelementptr inbounds i8, i8* %25, i64 2
  %27 = load i8, i8* %26, align 1
  %28 = zext i8 %27 to i32
  %29 = shl i32 %28, 8
  %30 = or i32 %24, %29
  %31 = load i8*, i8** %7, align 8
  %32 = getelementptr inbounds i8, i8* %31, i64 3
  %33 = load i8, i8* %32, align 1
  %34 = zext i8 %33 to i32
  %35 = or i32 %30, %34
  %36 = getelementptr inbounds [36 x i32], [36 x i32]* %9, i64 0, i64 0
  store i32 %35, i32* %36, align 16
  %37 = load i8*, i8** %7, align 8
  %38 = getelementptr inbounds i8, i8* %37, i64 4
  %39 = load i8, i8* %38, align 1
  %40 = zext i8 %39 to i32
  %41 = shl i32 %40, 24
  %42 = load i8*, i8** %7, align 8
  %43 = getelementptr inbounds i8, i8* %42, i64 5
  %44 = load i8, i8* %43, align 1
  %45 = zext i8 %44 to i32
  %46 = shl i32 %45, 16
  %47 = or i32 %41, %46
  %48 = load i8*, i8** %7, align 8
  %49 = getelementptr inbounds i8, i8* %48, i64 6
  %50 = load i8, i8* %49, align 1
  %51 = zext i8 %50 to i32
  %52 = shl i32 %51, 8
  %53 = or i32 %47, %52
  %54 = load i8*, i8** %7, align 8
  %55 = getelementptr inbounds i8, i8* %54, i64 7
  %56 = load i8, i8* %55, align 1
  %57 = zext i8 %56 to i32
  %58 = or i32 %53, %57
  %59 = getelementptr inbounds [36 x i32], [36 x i32]* %9, i64 0, i64 1
  store i32 %58, i32* %59, align 4
  %60 = load i8*, i8** %7, align 8
  %61 = getelementptr inbounds i8, i8* %60, i64 8
  %62 = load i8, i8* %61, align 1
  %63 = zext i8 %62 to i32
  %64 = shl i32 %63, 24
  %65 = load i8*, i8** %7, align 8
  %66 = getelementptr inbounds i8, i8* %65, i64 9
  %67 = load i8, i8* %66, align 1
  %68 = zext i8 %67 to i32
  %69 = shl i32 %68, 16
  %70 = or i32 %64, %69
  %71 = load i8*, i8** %7, align 8
  %72 = getelementptr inbounds i8, i8* %71, i64 10
  %73 = load i8, i8* %72, align 1
  %74 = zext i8 %73 to i32
  %75 = shl i32 %74, 8
  %76 = or i32 %70, %75
  %77 = load i8*, i8** %7, align 8
  %78 = getelementptr inbounds i8, i8* %77, i64 11
  %79 = load i8, i8* %78, align 1
  %80 = zext i8 %79 to i32
  %81 = or i32 %76, %80
  %82 = getelementptr inbounds [36 x i32], [36 x i32]* %9, i64 0, i64 2
  store i32 %81, i32* %82, align 8
  %83 = load i8*, i8** %7, align 8
  %84 = getelementptr inbounds i8, i8* %83, i64 12
  %85 = load i8, i8* %84, align 1
  %86 = zext i8 %85 to i32
  %87 = shl i32 %86, 24
  %88 = load i8*, i8** %7, align 8
  %89 = getelementptr inbounds i8, i8* %88, i64 13
  %90 = load i8, i8* %89, align 1
  %91 = zext i8 %90 to i32
  %92 = shl i32 %91, 16
  %93 = or i32 %87, %92
  %94 = load i8*, i8** %7, align 8
  %95 = getelementptr inbounds i8, i8* %94, i64 14
  %96 = load i8, i8* %95, align 1
  %97 = zext i8 %96 to i32
  %98 = shl i32 %97, 8
  %99 = or i32 %93, %98
  %100 = load i8*, i8** %7, align 8
  %101 = getelementptr inbounds i8, i8* %100, i64 15
  %102 = load i8, i8* %101, align 1
  %103 = zext i8 %102 to i32
  %104 = or i32 %99, %103
  %105 = getelementptr inbounds [36 x i32], [36 x i32]* %9, i64 0, i64 3
  store i32 %104, i32* %105, align 4
  store i32 0, i32* %12, align 4
  br label %106

106:                                              ; preds = %216, %4
  %107 = load i32, i32* %12, align 4
  %108 = icmp slt i32 %107, 32
  br i1 %108, label %109, label %219

109:                                              ; preds = %106
  %110 = load i32, i32* %12, align 4
  %111 = add nsw i32 %110, 1
  %112 = sext i32 %111 to i64
  %113 = getelementptr inbounds [36 x i32], [36 x i32]* %9, i64 0, i64 %112
  %114 = load i32, i32* %113, align 4
  %115 = load i32, i32* %12, align 4
  %116 = add nsw i32 %115, 2
  %117 = sext i32 %116 to i64
  %118 = getelementptr inbounds [36 x i32], [36 x i32]* %9, i64 0, i64 %117
  %119 = load i32, i32* %118, align 4
  %120 = xor i32 %114, %119
  %121 = load i32, i32* %12, align 4
  %122 = add nsw i32 %121, 3
  %123 = sext i32 %122 to i64
  %124 = getelementptr inbounds [36 x i32], [36 x i32]* %9, i64 0, i64 %123
  %125 = load i32, i32* %124, align 4
  %126 = xor i32 %120, %125
  %127 = load i32*, i32** %5, align 8
  %128 = load i32, i32* %6, align 4
  %129 = icmp ne i32 %128, 0
  br i1 %129, label %130, label %132

130:                                              ; preds = %109
  %131 = load i32, i32* %12, align 4
  br label %135

132:                                              ; preds = %109
  %133 = load i32, i32* %12, align 4
  %134 = sub nsw i32 31, %133
  br label %135

135:                                              ; preds = %132, %130
  %136 = phi i32 [ %131, %130 ], [ %134, %132 ]
  %137 = sext i32 %136 to i64
  %138 = getelementptr inbounds i32, i32* %127, i64 %137
  %139 = load i32, i32* %138, align 4
  %140 = xor i32 %126, %139
  store i32 %140, i32* %10, align 4
  %141 = load i32, i32* %10, align 4
  %142 = lshr i32 %141, 24
  %143 = and i32 %142, 255
  %144 = zext i32 %143 to i64
  %145 = getelementptr inbounds [256 x i8], [256 x i8]* @GM_SM4_SBOX, i64 0, i64 %144
  %146 = load i8, i8* %145, align 1
  %147 = zext i8 %146 to i32
  %148 = shl i32 %147, 24
  store i32 %148, i32* %11, align 4
  %149 = load i32, i32* %10, align 4
  %150 = lshr i32 %149, 16
  %151 = and i32 %150, 255
  %152 = zext i32 %151 to i64
  %153 = getelementptr inbounds [256 x i8], [256 x i8]* @GM_SM4_SBOX, i64 0, i64 %152
  %154 = load i8, i8* %153, align 1
  %155 = zext i8 %154 to i32
  %156 = shl i32 %155, 16
  %157 = load i32, i32* %11, align 4
  %158 = or i32 %157, %156
  store i32 %158, i32* %11, align 4
  %159 = load i32, i32* %10, align 4
  %160 = lshr i32 %159, 8
  %161 = and i32 %160, 255
  %162 = zext i32 %161 to i64
  %163 = getelementptr inbounds [256 x i8], [256 x i8]* @GM_SM4_SBOX, i64 0, i64 %162
  %164 = load i8, i8* %163, align 1
  %165 = zext i8 %164 to i32
  %166 = shl i32 %165, 8
  %167 = load i32, i32* %11, align 4
  %168 = or i32 %167, %166
  store i32 %168, i32* %11, align 4
  %169 = load i32, i32* %10, align 4
  %170 = and i32 %169, 255
  %171 = zext i32 %170 to i64
  %172 = getelementptr inbounds [256 x i8], [256 x i8]* @GM_SM4_SBOX, i64 0, i64 %171
  %173 = load i8, i8* %172, align 1
  %174 = zext i8 %173 to i32
  %175 = load i32, i32* %11, align 4
  %176 = or i32 %175, %174
  store i32 %176, i32* %11, align 4
  %177 = load i32, i32* %11, align 4
  %178 = load i32, i32* %11, align 4
  %179 = and i32 %178, -1
  %180 = shl i32 %179, 2
  %181 = load i32, i32* %11, align 4
  %182 = lshr i32 %181, 30
  %183 = or i32 %180, %182
  %184 = xor i32 %177, %183
  %185 = load i32, i32* %11, align 4
  %186 = and i32 %185, -1
  %187 = shl i32 %186, 10
  %188 = load i32, i32* %11, align 4
  %189 = lshr i32 %188, 22
  %190 = or i32 %187, %189
  %191 = xor i32 %184, %190
  %192 = load i32, i32* %11, align 4
  %193 = and i32 %192, -1
  %194 = shl i32 %193, 18
  %195 = load i32, i32* %11, align 4
  %196 = lshr i32 %195, 14
  %197 = or i32 %194, %196
  %198 = xor i32 %191, %197
  %199 = load i32, i32* %11, align 4
  %200 = and i32 %199, -1
  %201 = shl i32 %200, 24
  %202 = load i32, i32* %11, align 4
  %203 = lshr i32 %202, 8
  %204 = or i32 %201, %203
  %205 = xor i32 %198, %204
  store i32 %205, i32* %13, align 4
  %206 = load i32, i32* %12, align 4
  %207 = sext i32 %206 to i64
  %208 = getelementptr inbounds [36 x i32], [36 x i32]* %9, i64 0, i64 %207
  %209 = load i32, i32* %208, align 4
  %210 = load i32, i32* %13, align 4
  %211 = xor i32 %209, %210
  %212 = load i32, i32* %12, align 4
  %213 = add nsw i32 %212, 4
  %214 = sext i32 %213 to i64
  %215 = getelementptr inbounds [36 x i32], [36 x i32]* %9, i64 0, i64 %214
  store i32 %211, i32* %215, align 4
  br label %216

216:                                              ; preds = %135
  %217 = load i32, i32* %12, align 4
  %218 = add nsw i32 %217, 1
  store i32 %218, i32* %12, align 4
  br label %106, !llvm.loop !20

219:                                              ; preds = %106
  %220 = getelementptr inbounds [36 x i32], [36 x i32]* %9, i64 0, i64 35
  %221 = load i32, i32* %220, align 4
  %222 = lshr i32 %221, 24
  %223 = trunc i32 %222 to i8
  %224 = load i8*, i8** %8, align 8
  %225 = getelementptr inbounds i8, i8* %224, i64 0
  store i8 %223, i8* %225, align 1
  %226 = getelementptr inbounds [36 x i32], [36 x i32]* %9, i64 0, i64 35
  %227 = load i32, i32* %226, align 4
  %228 = lshr i32 %227, 16
  %229 = trunc i32 %228 to i8
  %230 = load i8*, i8** %8, align 8
  %231 = getelementptr inbounds i8, i8* %230, i64 1
  store i8 %229, i8* %231, align 1
  %232 = getelementptr inbounds [36 x i32], [36 x i32]* %9, i64 0, i64 35
  %233 = load i32, i32* %232, align 4
  %234 = lshr i32 %233, 8
  %235 = trunc i32 %234 to i8
  %236 = load i8*, i8** %8, align 8
  %237 = getelementptr inbounds i8, i8* %236, i64 2
  store i8 %235, i8* %237, align 1
  %238 = getelementptr inbounds [36 x i32], [36 x i32]* %9, i64 0, i64 35
  %239 = load i32, i32* %238, align 4
  %240 = trunc i32 %239 to i8
  %241 = load i8*, i8** %8, align 8
  %242 = getelementptr inbounds i8, i8* %241, i64 3
  store i8 %240, i8* %242, align 1
  %243 = getelementptr inbounds [36 x i32], [36 x i32]* %9, i64 0, i64 34
  %244 = load i32, i32* %243, align 8
  %245 = lshr i32 %244, 24
  %246 = trunc i32 %245 to i8
  %247 = load i8*, i8** %8, align 8
  %248 = getelementptr inbounds i8, i8* %247, i64 4
  store i8 %246, i8* %248, align 1
  %249 = getelementptr inbounds [36 x i32], [36 x i32]* %9, i64 0, i64 34
  %250 = load i32, i32* %249, align 8
  %251 = lshr i32 %250, 16
  %252 = trunc i32 %251 to i8
  %253 = load i8*, i8** %8, align 8
  %254 = getelementptr inbounds i8, i8* %253, i64 5
  store i8 %252, i8* %254, align 1
  %255 = getelementptr inbounds [36 x i32], [36 x i32]* %9, i64 0, i64 34
  %256 = load i32, i32* %255, align 8
  %257 = lshr i32 %256, 8
  %258 = trunc i32 %257 to i8
  %259 = load i8*, i8** %8, align 8
  %260 = getelementptr inbounds i8, i8* %259, i64 6
  store i8 %258, i8* %260, align 1
  %261 = getelementptr inbounds [36 x i32], [36 x i32]* %9, i64 0, i64 34
  %262 = load i32, i32* %261, align 8
  %263 = trunc i32 %262 to i8
  %264 = load i8*, i8** %8, align 8
  %265 = getelementptr inbounds i8, i8* %264, i64 7
  store i8 %263, i8* %265, align 1
  %266 = getelementptr inbounds [36 x i32], [36 x i32]* %9, i64 0, i64 33
  %267 = load i32, i32* %266, align 4
  %268 = lshr i32 %267, 24
  %269 = trunc i32 %268 to i8
  %270 = load i8*, i8** %8, align 8
  %271 = getelementptr inbounds i8, i8* %270, i64 8
  store i8 %269, i8* %271, align 1
  %272 = getelementptr inbounds [36 x i32], [36 x i32]* %9, i64 0, i64 33
  %273 = load i32, i32* %272, align 4
  %274 = lshr i32 %273, 16
  %275 = trunc i32 %274 to i8
  %276 = load i8*, i8** %8, align 8
  %277 = getelementptr inbounds i8, i8* %276, i64 9
  store i8 %275, i8* %277, align 1
  %278 = getelementptr inbounds [36 x i32], [36 x i32]* %9, i64 0, i64 33
  %279 = load i32, i32* %278, align 4
  %280 = lshr i32 %279, 8
  %281 = trunc i32 %280 to i8
  %282 = load i8*, i8** %8, align 8
  %283 = getelementptr inbounds i8, i8* %282, i64 10
  store i8 %281, i8* %283, align 1
  %284 = getelementptr inbounds [36 x i32], [36 x i32]* %9, i64 0, i64 33
  %285 = load i32, i32* %284, align 4
  %286 = trunc i32 %285 to i8
  %287 = load i8*, i8** %8, align 8
  %288 = getelementptr inbounds i8, i8* %287, i64 11
  store i8 %286, i8* %288, align 1
  %289 = getelementptr inbounds [36 x i32], [36 x i32]* %9, i64 0, i64 32
  %290 = load i32, i32* %289, align 16
  %291 = lshr i32 %290, 24
  %292 = trunc i32 %291 to i8
  %293 = load i8*, i8** %8, align 8
  %294 = getelementptr inbounds i8, i8* %293, i64 12
  store i8 %292, i8* %294, align 1
  %295 = getelementptr inbounds [36 x i32], [36 x i32]* %9, i64 0, i64 32
  %296 = load i32, i32* %295, align 16
  %297 = lshr i32 %296, 16
  %298 = trunc i32 %297 to i8
  %299 = load i8*, i8** %8, align 8
  %300 = getelementptr inbounds i8, i8* %299, i64 13
  store i8 %298, i8* %300, align 1
  %301 = getelementptr inbounds [36 x i32], [36 x i32]* %9, i64 0, i64 32
  %302 = load i32, i32* %301, align 16
  %303 = lshr i32 %302, 8
  %304 = trunc i32 %303 to i8
  %305 = load i8*, i8** %8, align 8
  %306 = getelementptr inbounds i8, i8* %305, i64 14
  store i8 %304, i8* %306, align 1
  %307 = getelementptr inbounds [36 x i32], [36 x i32]* %9, i64 0, i64 32
  %308 = load i32, i32* %307, align 16
  %309 = trunc i32 %308 to i8
  %310 = load i8*, i8** %8, align 8
  %311 = getelementptr inbounds i8, i8* %310, i64 15
  store i8 %309, i8* %311, align 1
  ret void
}

; Function Attrs: mustprogress noinline optnone uwtable
define dso_local noundef i32 @_ZN11CryptoUtils11gm_sm4_doneEP14gm_sm4_contextPh(%struct.gm_sm4_context* noundef %0, i8* noundef %1) #5 align 2 {
  %3 = alloca i32, align 4
  %4 = alloca %struct.gm_sm4_context*, align 8
  %5 = alloca i8*, align 8
  %6 = alloca i32, align 4
  %7 = alloca i32, align 4
  store %struct.gm_sm4_context* %0, %struct.gm_sm4_context** %4, align 8
  store i8* %1, i8** %5, align 8
  store i32 0, i32* %6, align 4
  store i32 0, i32* %7, align 4
  %8 = load %struct.gm_sm4_context*, %struct.gm_sm4_context** %4, align 8
  %9 = getelementptr inbounds %struct.gm_sm4_context, %struct.gm_sm4_context* %8, i32 0, i32 5
  %10 = load i32, i32* %9, align 4
  %11 = and i32 %10, 1
  %12 = icmp ne i32 %11, 0
  br i1 %12, label %13, label %46

13:                                               ; preds = %2
  %14 = load %struct.gm_sm4_context*, %struct.gm_sm4_context** %4, align 8
  %15 = getelementptr inbounds %struct.gm_sm4_context, %struct.gm_sm4_context* %14, i32 0, i32 5
  %16 = load i32, i32* %15, align 4
  %17 = and i32 %16, 2
  %18 = icmp ne i32 %17, 0
  br i1 %18, label %19, label %46

19:                                               ; preds = %13
  %20 = load %struct.gm_sm4_context*, %struct.gm_sm4_context** %4, align 8
  %21 = getelementptr inbounds %struct.gm_sm4_context, %struct.gm_sm4_context* %20, i32 0, i32 3
  %22 = load i32, i32* %21, align 4
  %23 = icmp ne i32 %22, 16
  br i1 %23, label %24, label %46

24:                                               ; preds = %19
  %25 = load %struct.gm_sm4_context*, %struct.gm_sm4_context** %4, align 8
  %26 = getelementptr inbounds %struct.gm_sm4_context, %struct.gm_sm4_context* %25, i32 0, i32 3
  %27 = load i32, i32* %26, align 4
  %28 = sub i32 16, %27
  store i32 %28, i32* %7, align 4
  %29 = load %struct.gm_sm4_context*, %struct.gm_sm4_context** %4, align 8
  %30 = getelementptr inbounds %struct.gm_sm4_context, %struct.gm_sm4_context* %29, i32 0, i32 1
  %31 = getelementptr inbounds [16 x i8], [16 x i8]* %30, i64 0, i64 0
  %32 = load %struct.gm_sm4_context*, %struct.gm_sm4_context** %4, align 8
  %33 = getelementptr inbounds %struct.gm_sm4_context, %struct.gm_sm4_context* %32, i32 0, i32 3
  %34 = load i32, i32* %33, align 4
  %35 = zext i32 %34 to i64
  %36 = getelementptr inbounds i8, i8* %31, i64 %35
  %37 = load i32, i32* %7, align 4
  %38 = trunc i32 %37 to i8
  %39 = load i32, i32* %7, align 4
  %40 = sext i32 %39 to i64
  call void @llvm.memset.p0i8.i64(i8* align 1 %36, i8 %38, i64 %40, i1 false)
  %41 = load i32, i32* %7, align 4
  %42 = load %struct.gm_sm4_context*, %struct.gm_sm4_context** %4, align 8
  %43 = getelementptr inbounds %struct.gm_sm4_context, %struct.gm_sm4_context* %42, i32 0, i32 3
  %44 = load i32, i32* %43, align 4
  %45 = add i32 %44, %41
  store i32 %45, i32* %43, align 4
  br label %46

46:                                               ; preds = %24, %19, %13, %2
  %47 = load %struct.gm_sm4_context*, %struct.gm_sm4_context** %4, align 8
  %48 = getelementptr inbounds %struct.gm_sm4_context, %struct.gm_sm4_context* %47, i32 0, i32 3
  %49 = load i32, i32* %48, align 4
  %50 = icmp ne i32 %49, 16
  br i1 %50, label %51, label %52

51:                                               ; preds = %46
  store i32 -1, i32* %3, align 4
  br label %125

52:                                               ; preds = %46
  %53 = load %struct.gm_sm4_context*, %struct.gm_sm4_context** %4, align 8
  %54 = load i8*, i8** %5, align 8
  call void @_ZL16update_one_roundP14gm_sm4_contextPh(%struct.gm_sm4_context* noundef %53, i8* noundef %54)
  %55 = load %struct.gm_sm4_context*, %struct.gm_sm4_context** %4, align 8
  %56 = getelementptr inbounds %struct.gm_sm4_context, %struct.gm_sm4_context* %55, i32 0, i32 4
  %57 = load i32, i32* %56, align 4
  %58 = add i32 %57, 16
  store i32 %58, i32* %56, align 4
  %59 = load %struct.gm_sm4_context*, %struct.gm_sm4_context** %4, align 8
  %60 = getelementptr inbounds %struct.gm_sm4_context, %struct.gm_sm4_context* %59, i32 0, i32 3
  store i32 0, i32* %60, align 4
  store i32 16, i32* %6, align 4
  %61 = load %struct.gm_sm4_context*, %struct.gm_sm4_context** %4, align 8
  %62 = getelementptr inbounds %struct.gm_sm4_context, %struct.gm_sm4_context* %61, i32 0, i32 5
  %63 = load i32, i32* %62, align 4
  %64 = and i32 %63, 1
  %65 = icmp ne i32 %64, 0
  br i1 %65, label %66, label %96

66:                                               ; preds = %52
  %67 = load %struct.gm_sm4_context*, %struct.gm_sm4_context** %4, align 8
  %68 = getelementptr inbounds %struct.gm_sm4_context, %struct.gm_sm4_context* %67, i32 0, i32 5
  %69 = load i32, i32* %68, align 4
  %70 = and i32 %69, 2
  %71 = icmp ne i32 %70, 0
  br i1 %71, label %72, label %95

72:                                               ; preds = %66
  %73 = load i32, i32* %7, align 4
  %74 = icmp eq i32 %73, 0
  br i1 %74, label %75, label %94

75:                                               ; preds = %72
  %76 = load %struct.gm_sm4_context*, %struct.gm_sm4_context** %4, align 8
  %77 = getelementptr inbounds %struct.gm_sm4_context, %struct.gm_sm4_context* %76, i32 0, i32 1
  %78 = getelementptr inbounds [16 x i8], [16 x i8]* %77, i64 0, i64 0
  call void @llvm.memset.p0i8.i64(i8* align 4 %78, i8 16, i64 16, i1 false)
  %79 = load %struct.gm_sm4_context*, %struct.gm_sm4_context** %4, align 8
  %80 = getelementptr inbounds %struct.gm_sm4_context, %struct.gm_sm4_context* %79, i32 0, i32 3
  store i32 16, i32* %80, align 4
  %81 = load %struct.gm_sm4_context*, %struct.gm_sm4_context** %4, align 8
  %82 = load i8*, i8** %5, align 8
  %83 = load i32, i32* %6, align 4
  %84 = sext i32 %83 to i64
  %85 = getelementptr inbounds i8, i8* %82, i64 %84
  call void @_ZL16update_one_roundP14gm_sm4_contextPh(%struct.gm_sm4_context* noundef %81, i8* noundef %85)
  %86 = load %struct.gm_sm4_context*, %struct.gm_sm4_context** %4, align 8
  %87 = getelementptr inbounds %struct.gm_sm4_context, %struct.gm_sm4_context* %86, i32 0, i32 4
  %88 = load i32, i32* %87, align 4
  %89 = add i32 %88, 16
  store i32 %89, i32* %87, align 4
  %90 = load %struct.gm_sm4_context*, %struct.gm_sm4_context** %4, align 8
  %91 = getelementptr inbounds %struct.gm_sm4_context, %struct.gm_sm4_context* %90, i32 0, i32 3
  store i32 0, i32* %91, align 4
  %92 = load i32, i32* %6, align 4
  %93 = add nsw i32 %92, 16
  store i32 %93, i32* %6, align 4
  br label %94

94:                                               ; preds = %75, %72
  br label %95

95:                                               ; preds = %94, %66
  br label %123

96:                                               ; preds = %52
  %97 = load %struct.gm_sm4_context*, %struct.gm_sm4_context** %4, align 8
  %98 = getelementptr inbounds %struct.gm_sm4_context, %struct.gm_sm4_context* %97, i32 0, i32 5
  %99 = load i32, i32* %98, align 4
  %100 = and i32 %99, 2
  %101 = icmp ne i32 %100, 0
  br i1 %101, label %102, label %122

102:                                              ; preds = %96
  %103 = load i8*, i8** %5, align 8
  %104 = getelementptr inbounds i8, i8* %103, i64 15
  %105 = load i8, i8* %104, align 1
  %106 = zext i8 %105 to i32
  %107 = icmp sgt i32 %106, 16
  br i1 %107, label %114, label %108

108:                                              ; preds = %102
  %109 = load i8*, i8** %5, align 8
  %110 = getelementptr inbounds i8, i8* %109, i64 15
  %111 = load i8, i8* %110, align 1
  %112 = zext i8 %111 to i32
  %113 = icmp sle i32 %112, 0
  br i1 %113, label %114, label %115

114:                                              ; preds = %108, %102
  store i32 -1, i32* %3, align 4
  br label %125

115:                                              ; preds = %108
  %116 = load i8*, i8** %5, align 8
  %117 = getelementptr inbounds i8, i8* %116, i64 15
  %118 = load i8, i8* %117, align 1
  %119 = zext i8 %118 to i32
  %120 = load i32, i32* %6, align 4
  %121 = sub nsw i32 %120, %119
  store i32 %121, i32* %6, align 4
  br label %122

122:                                              ; preds = %115, %96
  br label %123

123:                                              ; preds = %122, %95
  %124 = load i32, i32* %6, align 4
  store i32 %124, i32* %3, align 4
  br label %125

125:                                              ; preds = %123, %114, %51
  %126 = load i32, i32* %3, align 4
  ret i32 %126
}

; Function Attrs: argmemonly nofree nounwind willreturn writeonly
declare void @llvm.memset.p0i8.i64(i8* nocapture writeonly, i8, i64, i1 immarg) #8

; Function Attrs: mustprogress noinline optnone uwtable
define dso_local noundef i32 @_ZN11CryptoUtils15Enc_sm4_ecb_cbcEiiPhi(i32 noundef %0, i32 noundef %1, i8* noundef %2, i32 noundef %3) #5 align 2 {
  %5 = alloca i32, align 4
  %6 = alloca i32, align 4
  %7 = alloca i32, align 4
  %8 = alloca i8*, align 8
  %9 = alloca i32, align 4
  %10 = alloca i32, align 4
  %11 = alloca %struct.gm_sm4_context, align 4
  %12 = alloca i32, align 4
  %13 = alloca i32, align 4
  store i32 %0, i32* %6, align 4
  store i32 %1, i32* %7, align 4
  store i8* %2, i8** %8, align 8
  store i32 %3, i32* %9, align 4
  store i32 0, i32* %10, align 4
  br label %14

14:                                               ; preds = %60, %4
  %15 = load i32, i32* %10, align 4
  %16 = icmp slt i32 %15, 1
  br i1 %16, label %17, label %63

17:                                               ; preds = %14
  %18 = load i32, i32* %7, align 4
  %19 = load i32, i32* %6, align 4
  %20 = icmp ne i32 %19, 0
  %21 = zext i1 %20 to i64
  %22 = select i1 %20, i8* getelementptr inbounds ([16 x i8], [16 x i8]* @key, i64 0, i64 0), i8* null
  call void @_ZN11CryptoUtils11gm_sm4_initEP14gm_sm4_contextPKhiiS3_(%struct.gm_sm4_context* noundef %11, i8* noundef getelementptr inbounds ([16 x i8], [16 x i8]* @key, i64 0, i64 0), i32 noundef 1, i32 noundef %18, i8* noundef %22)
  %23 = load i32, i32* %9, align 4
  %24 = icmp sgt i32 %23, 32
  br i1 %24, label %25, label %41

25:                                               ; preds = %17
  %26 = load i32, i32* %9, align 4
  %27 = sub nsw i32 %26, 32
  store i32 %27, i32* %12, align 4
  %28 = load i8*, i8** %8, align 8
  %29 = load i8*, i8** %8, align 8
  %30 = call noundef i32 @_ZN11CryptoUtils13gm_sm4_updateEP14gm_sm4_contextPKhjPh(%struct.gm_sm4_context* noundef %11, i8* noundef %28, i32 noundef 32, i8* noundef %29)
  store i32 %30, i32* %9, align 4
  %31 = load i8*, i8** %8, align 8
  %32 = getelementptr inbounds i8, i8* %31, i64 32
  %33 = load i32, i32* %12, align 4
  %34 = load i8*, i8** %8, align 8
  %35 = load i32, i32* %9, align 4
  %36 = sext i32 %35 to i64
  %37 = getelementptr inbounds i8, i8* %34, i64 %36
  %38 = call noundef i32 @_ZN11CryptoUtils13gm_sm4_updateEP14gm_sm4_contextPKhjPh(%struct.gm_sm4_context* noundef %11, i8* noundef %32, i32 noundef %33, i8* noundef %37)
  %39 = load i32, i32* %9, align 4
  %40 = add nsw i32 %39, %38
  store i32 %40, i32* %9, align 4
  br label %46

41:                                               ; preds = %17
  %42 = load i8*, i8** %8, align 8
  %43 = load i32, i32* %9, align 4
  %44 = load i8*, i8** %8, align 8
  %45 = call noundef i32 @_ZN11CryptoUtils13gm_sm4_updateEP14gm_sm4_contextPKhjPh(%struct.gm_sm4_context* noundef %11, i8* noundef %42, i32 noundef %43, i8* noundef %44)
  store i32 %45, i32* %9, align 4
  br label %46

46:                                               ; preds = %41, %25
  %47 = load i8*, i8** %8, align 8
  %48 = load i32, i32* %9, align 4
  %49 = sext i32 %48 to i64
  %50 = getelementptr inbounds i8, i8* %47, i64 %49
  %51 = call noundef i32 @_ZN11CryptoUtils11gm_sm4_doneEP14gm_sm4_contextPh(%struct.gm_sm4_context* noundef %11, i8* noundef %50)
  store i32 %51, i32* %13, align 4
  %52 = load i32, i32* %13, align 4
  %53 = icmp eq i32 %52, -1
  br i1 %53, label %54, label %56

54:                                               ; preds = %46
  %55 = call i32 (i8*, ...) @printf(i8* noundef getelementptr inbounds ([20 x i8], [20 x i8]* @.str, i64 0, i64 0))
  store i32 -1, i32* %5, align 4
  br label %65

56:                                               ; preds = %46
  %57 = load i32, i32* %13, align 4
  %58 = load i32, i32* %9, align 4
  %59 = add nsw i32 %58, %57
  store i32 %59, i32* %9, align 4
  br label %60

60:                                               ; preds = %56
  %61 = load i32, i32* %10, align 4
  %62 = add nsw i32 %61, 1
  store i32 %62, i32* %10, align 4
  br label %14, !llvm.loop !21

63:                                               ; preds = %14
  %64 = load i32, i32* %9, align 4
  store i32 %64, i32* %5, align 4
  br label %65

65:                                               ; preds = %63, %54
  %66 = load i32, i32* %5, align 4
  ret i32 %66
}

; Function Attrs: mustprogress noinline optnone uwtable
define dso_local void @Dec_sm4_ecb_cbc(i32 noundef %0, i32 noundef %1, i8* noundef %2, i8* noundef %3, i32 noundef %4, i8* noundef %5) #5 {
  %7 = alloca i32, align 4
  %8 = alloca i32, align 4
  %9 = alloca i8*, align 8
  %10 = alloca i8*, align 8
  %11 = alloca i32, align 4
  %12 = alloca i8*, align 8
  %13 = alloca i32, align 4
  %14 = alloca %struct.gm_sm4_context, align 4
  %15 = alloca %class.CryptoUtils, align 8
  %16 = alloca i32, align 4
  %17 = alloca i32, align 4
  store i32 %0, i32* %7, align 4
  store i32 %1, i32* %8, align 4
  store i8* %2, i8** %9, align 8
  store i8* %3, i8** %10, align 8
  store i32 %4, i32* %11, align 4
  store i8* %5, i8** %12, align 8
  %18 = load i8*, i8** %12, align 8
  %19 = load i8, i8* %18, align 1
  %20 = zext i8 %19 to i32
  %21 = icmp slt i32 %20, 3
  br i1 %21, label %22, label %23

22:                                               ; preds = %6
  br label %92

23:                                               ; preds = %6
  call void @_ZN11CryptoUtilsC2Ev(%class.CryptoUtils* noundef nonnull align 8 dereferenceable(2504) %15)
  store i32 0, i32* %13, align 4
  br label %24

24:                                               ; preds = %70, %23
  %25 = load i32, i32* %13, align 4
  %26 = icmp slt i32 %25, 1
  br i1 %26, label %27, label %73

27:                                               ; preds = %24
  %28 = load i32, i32* %8, align 4
  %29 = load i32, i32* %7, align 4
  %30 = icmp ne i32 %29, 0
  %31 = zext i1 %30 to i64
  %32 = select i1 %30, i8* getelementptr inbounds ([16 x i8], [16 x i8]* @key, i64 0, i64 0), i8* null
  call void @_ZN11CryptoUtils11gm_sm4_initEP14gm_sm4_contextPKhiiS3_(%struct.gm_sm4_context* noundef %14, i8* noundef getelementptr inbounds ([16 x i8], [16 x i8]* @key, i64 0, i64 0), i32 noundef 0, i32 noundef %28, i8* noundef %32)
  %33 = load i32, i32* %11, align 4
  %34 = icmp sgt i32 %33, 32
  br i1 %34, label %35, label %51

35:                                               ; preds = %27
  %36 = load i32, i32* %11, align 4
  %37 = sub nsw i32 %36, 32
  store i32 %37, i32* %16, align 4
  %38 = load i8*, i8** %10, align 8
  %39 = load i8*, i8** %10, align 8
  %40 = call noundef i32 @_ZN11CryptoUtils13gm_sm4_updateEP14gm_sm4_contextPKhjPh(%struct.gm_sm4_context* noundef %14, i8* noundef %38, i32 noundef 32, i8* noundef %39)
  store i32 %40, i32* %11, align 4
  %41 = load i8*, i8** %10, align 8
  %42 = getelementptr inbounds i8, i8* %41, i64 32
  %43 = load i32, i32* %16, align 4
  %44 = load i8*, i8** %10, align 8
  %45 = load i32, i32* %11, align 4
  %46 = sext i32 %45 to i64
  %47 = getelementptr inbounds i8, i8* %44, i64 %46
  %48 = call noundef i32 @_ZN11CryptoUtils13gm_sm4_updateEP14gm_sm4_contextPKhjPh(%struct.gm_sm4_context* noundef %14, i8* noundef %42, i32 noundef %43, i8* noundef %47)
  %49 = load i32, i32* %11, align 4
  %50 = add nsw i32 %49, %48
  store i32 %50, i32* %11, align 4
  br label %56

51:                                               ; preds = %27
  %52 = load i8*, i8** %10, align 8
  %53 = load i32, i32* %11, align 4
  %54 = load i8*, i8** %10, align 8
  %55 = call noundef i32 @_ZN11CryptoUtils13gm_sm4_updateEP14gm_sm4_contextPKhjPh(%struct.gm_sm4_context* noundef %14, i8* noundef %52, i32 noundef %53, i8* noundef %54)
  store i32 %55, i32* %11, align 4
  br label %56

56:                                               ; preds = %51, %35
  %57 = load i8*, i8** %10, align 8
  %58 = load i32, i32* %11, align 4
  %59 = sext i32 %58 to i64
  %60 = getelementptr inbounds i8, i8* %57, i64 %59
  %61 = call noundef i32 @_ZN11CryptoUtils11gm_sm4_doneEP14gm_sm4_contextPh(%struct.gm_sm4_context* noundef %14, i8* noundef %60)
  store i32 %61, i32* %17, align 4
  %62 = load i32, i32* %17, align 4
  %63 = icmp eq i32 %62, -1
  br i1 %63, label %64, label %66

64:                                               ; preds = %56
  %65 = call i32 (i8*, ...) @printf(i8* noundef getelementptr inbounds ([20 x i8], [20 x i8]* @.str, i64 0, i64 0))
  br label %92

66:                                               ; preds = %56
  %67 = load i32, i32* %17, align 4
  %68 = load i32, i32* %11, align 4
  %69 = add nsw i32 %68, %67
  store i32 %69, i32* %11, align 4
  br label %70

70:                                               ; preds = %66
  %71 = load i32, i32* %13, align 4
  %72 = add nsw i32 %71, 1
  store i32 %72, i32* %13, align 4
  br label %24, !llvm.loop !22

73:                                               ; preds = %24
  store i32 0, i32* %13, align 4
  br label %74

74:                                               ; preds = %88, %73
  %75 = load i32, i32* %13, align 4
  %76 = load i32, i32* %11, align 4
  %77 = icmp slt i32 %75, %76
  br i1 %77, label %78, label %91

78:                                               ; preds = %74
  %79 = load i8*, i8** %10, align 8
  %80 = load i32, i32* %13, align 4
  %81 = sext i32 %80 to i64
  %82 = getelementptr inbounds i8, i8* %79, i64 %81
  %83 = load i8, i8* %82, align 1
  %84 = load i8*, i8** %9, align 8
  %85 = load i32, i32* %13, align 4
  %86 = sext i32 %85 to i64
  %87 = getelementptr inbounds i8, i8* %84, i64 %86
  store i8 %83, i8* %87, align 1
  br label %88

88:                                               ; preds = %78
  %89 = load i32, i32* %13, align 4
  %90 = add nsw i32 %89, 1
  store i32 %90, i32* %13, align 4
  br label %74, !llvm.loop !23

91:                                               ; preds = %74
  br label %92

92:                                               ; preds = %91, %64, %22
  ret void
}

; Function Attrs: noinline optnone uwtable
define linkonce_odr dso_local void @_ZN11CryptoUtilsC2Ev(%class.CryptoUtils* noundef nonnull align 8 dereferenceable(2504) %0) unnamed_addr #6 comdat align 2 personality i8* bitcast (i32 (...)* @__gxx_personality_v0 to i8*) {
  %2 = alloca %class.CryptoUtils*, align 8
  %3 = alloca %"class.std::random_device", align 8
  %4 = alloca i8*, align 8
  %5 = alloca i32, align 4
  store %class.CryptoUtils* %0, %class.CryptoUtils** %2, align 8
  %6 = load %class.CryptoUtils*, %class.CryptoUtils** %2, align 8
  %7 = getelementptr inbounds %class.CryptoUtils, %class.CryptoUtils* %6, i32 0, i32 0
  call void @_ZNSt13random_deviceC2Ev(%"class.std::random_device"* noundef nonnull align 8 dereferenceable(5000) %3)
  %8 = invoke noundef i32 @_ZNSt13random_deviceclEv(%"class.std::random_device"* noundef nonnull align 8 dereferenceable(5000) %3)
          to label %9 unwind label %12

9:                                                ; preds = %1
  %10 = zext i32 %8 to i64
  invoke void @_ZNSt23mersenne_twister_engineImLm64ELm312ELm156ELm31ELm13043109905998158313ELm29ELm6148914691236517205ELm17ELm8202884508482404352ELm37ELm18444473444759240704ELm43ELm6364136223846793005EEC2Em(%"class.std::mersenne_twister_engine"* noundef nonnull align 8 dereferenceable(2504) %7, i64 noundef %10)
          to label %11 unwind label %12

11:                                               ; preds = %9
  call void @_ZNSt13random_deviceD2Ev(%"class.std::random_device"* noundef nonnull align 8 dereferenceable(5000) %3) #10
  ret void

12:                                               ; preds = %9, %1
  %13 = landingpad { i8*, i32 }
          cleanup
  %14 = extractvalue { i8*, i32 } %13, 0
  store i8* %14, i8** %4, align 8
  %15 = extractvalue { i8*, i32 } %13, 1
  store i32 %15, i32* %5, align 4
  call void @_ZNSt13random_deviceD2Ev(%"class.std::random_device"* noundef nonnull align 8 dereferenceable(5000) %3) #10
  br label %16

16:                                               ; preds = %12
  %17 = load i8*, i8** %4, align 8
  %18 = load i32, i32* %5, align 4
  %19 = insertvalue { i8*, i32 } undef, i8* %17, 0
  %20 = insertvalue { i8*, i32 } %19, i32 %18, 1
  resume { i8*, i32 } %20
}

declare i32 @__gxx_personality_v0(...)

; Function Attrs: noinline optnone uwtable
define linkonce_odr dso_local void @_ZNSt13random_deviceC2Ev(%"class.std::random_device"* noundef nonnull align 8 dereferenceable(5000) %0) unnamed_addr #6 comdat align 2 personality i8* bitcast (i32 (...)* @__gxx_personality_v0 to i8*) {
  %2 = alloca %"class.std::random_device"*, align 8
  %3 = alloca %"class.std::__cxx11::basic_string", align 8
  %4 = alloca %"class.std::allocator", align 1
  %5 = alloca i8*, align 8
  %6 = alloca i32, align 4
  store %"class.std::random_device"* %0, %"class.std::random_device"** %2, align 8
  %7 = load %"class.std::random_device"*, %"class.std::random_device"** %2, align 8
  call void @_ZNSaIcEC1Ev(%"class.std::allocator"* noundef nonnull align 1 dereferenceable(1) %4) #10
  invoke void @_ZNSt7__cxx1112basic_stringIcSt11char_traitsIcESaIcEEC1EPKcRKS3_(%"class.std::__cxx11::basic_string"* noundef nonnull align 8 dereferenceable(32) %3, i8* noundef getelementptr inbounds ([8 x i8], [8 x i8]* @.str.1, i64 0, i64 0), %"class.std::allocator"* noundef nonnull align 1 dereferenceable(1) %4)
          to label %8 unwind label %10

8:                                                ; preds = %1
  invoke void @_ZNSt13random_device7_M_initERKNSt7__cxx1112basic_stringIcSt11char_traitsIcESaIcEEE(%"class.std::random_device"* noundef nonnull align 8 dereferenceable(5000) %7, %"class.std::__cxx11::basic_string"* noundef nonnull align 8 dereferenceable(32) %3)
          to label %9 unwind label %14

9:                                                ; preds = %8
  call void @_ZNSt7__cxx1112basic_stringIcSt11char_traitsIcESaIcEED1Ev(%"class.std::__cxx11::basic_string"* noundef nonnull align 8 dereferenceable(32) %3) #10
  call void @_ZNSaIcED1Ev(%"class.std::allocator"* noundef nonnull align 1 dereferenceable(1) %4) #10
  ret void

10:                                               ; preds = %1
  %11 = landingpad { i8*, i32 }
          cleanup
  %12 = extractvalue { i8*, i32 } %11, 0
  store i8* %12, i8** %5, align 8
  %13 = extractvalue { i8*, i32 } %11, 1
  store i32 %13, i32* %6, align 4
  br label %18

14:                                               ; preds = %8
  %15 = landingpad { i8*, i32 }
          cleanup
  %16 = extractvalue { i8*, i32 } %15, 0
  store i8* %16, i8** %5, align 8
  %17 = extractvalue { i8*, i32 } %15, 1
  store i32 %17, i32* %6, align 4
  call void @_ZNSt7__cxx1112basic_stringIcSt11char_traitsIcESaIcEED1Ev(%"class.std::__cxx11::basic_string"* noundef nonnull align 8 dereferenceable(32) %3) #10
  br label %18

18:                                               ; preds = %14, %10
  call void @_ZNSaIcED1Ev(%"class.std::allocator"* noundef nonnull align 1 dereferenceable(1) %4) #10
  br label %19

19:                                               ; preds = %18
  %20 = load i8*, i8** %5, align 8
  %21 = load i32, i32* %6, align 4
  %22 = insertvalue { i8*, i32 } undef, i8* %20, 0
  %23 = insertvalue { i8*, i32 } %22, i32 %21, 1
  resume { i8*, i32 } %23
}

; Function Attrs: mustprogress noinline optnone uwtable
define linkonce_odr dso_local noundef i32 @_ZNSt13random_deviceclEv(%"class.std::random_device"* noundef nonnull align 8 dereferenceable(5000) %0) #5 comdat align 2 {
  %2 = alloca %"class.std::random_device"*, align 8
  store %"class.std::random_device"* %0, %"class.std::random_device"** %2, align 8
  %3 = load %"class.std::random_device"*, %"class.std::random_device"** %2, align 8
  %4 = call noundef i32 @_ZNSt13random_device9_M_getvalEv(%"class.std::random_device"* noundef nonnull align 8 dereferenceable(5000) %3)
  ret i32 %4
}

; Function Attrs: noinline optnone uwtable
define linkonce_odr dso_local void @_ZNSt23mersenne_twister_engineImLm64ELm312ELm156ELm31ELm13043109905998158313ELm29ELm6148914691236517205ELm17ELm8202884508482404352ELm37ELm18444473444759240704ELm43ELm6364136223846793005EEC2Em(%"class.std::mersenne_twister_engine"* noundef nonnull align 8 dereferenceable(2504) %0, i64 noundef %1) unnamed_addr #6 comdat align 2 {
  %3 = alloca %"class.std::mersenne_twister_engine"*, align 8
  %4 = alloca i64, align 8
  store %"class.std::mersenne_twister_engine"* %0, %"class.std::mersenne_twister_engine"** %3, align 8
  store i64 %1, i64* %4, align 8
  %5 = load %"class.std::mersenne_twister_engine"*, %"class.std::mersenne_twister_engine"** %3, align 8
  %6 = load i64, i64* %4, align 8
  call void @_ZNSt23mersenne_twister_engineImLm64ELm312ELm156ELm31ELm13043109905998158313ELm29ELm6148914691236517205ELm17ELm8202884508482404352ELm37ELm18444473444759240704ELm43ELm6364136223846793005EE4seedEm(%"class.std::mersenne_twister_engine"* noundef nonnull align 8 dereferenceable(2504) %5, i64 noundef %6)
  ret void
}

; Function Attrs: noinline nounwind optnone uwtable
define linkonce_odr dso_local void @_ZNSt13random_deviceD2Ev(%"class.std::random_device"* noundef nonnull align 8 dereferenceable(5000) %0) unnamed_addr #0 comdat align 2 personality i8* bitcast (i32 (...)* @__gxx_personality_v0 to i8*) {
  %2 = alloca %"class.std::random_device"*, align 8
  store %"class.std::random_device"* %0, %"class.std::random_device"** %2, align 8
  %3 = load %"class.std::random_device"*, %"class.std::random_device"** %2, align 8
  invoke void @_ZNSt13random_device7_M_finiEv(%"class.std::random_device"* noundef nonnull align 8 dereferenceable(5000) %3)
          to label %4 unwind label %5

4:                                                ; preds = %1
  ret void

5:                                                ; preds = %1
  %6 = landingpad { i8*, i32 }
          catch i8* null
  %7 = extractvalue { i8*, i32 } %6, 0
  call void @__clang_call_terminate(i8* %7) #12
  unreachable
}

declare void @_ZNSt13random_device7_M_finiEv(%"class.std::random_device"* noundef nonnull align 8 dereferenceable(5000)) #1

; Function Attrs: noinline noreturn nounwind
define linkonce_odr hidden void @__clang_call_terminate(i8* %0) #9 comdat {
  %2 = call i8* @__cxa_begin_catch(i8* %0) #10
  call void @_ZSt9terminatev() #12
  unreachable
}

declare i8* @__cxa_begin_catch(i8*)

declare void @_ZSt9terminatev()

; Function Attrs: mustprogress noinline optnone uwtable
define linkonce_odr dso_local void @_ZNSt23mersenne_twister_engineImLm64ELm312ELm156ELm31ELm13043109905998158313ELm29ELm6148914691236517205ELm17ELm8202884508482404352ELm37ELm18444473444759240704ELm43ELm6364136223846793005EE4seedEm(%"class.std::mersenne_twister_engine"* noundef nonnull align 8 dereferenceable(2504) %0, i64 noundef %1) #5 comdat align 2 {
  %3 = alloca %"class.std::mersenne_twister_engine"*, align 8
  %4 = alloca i64, align 8
  %5 = alloca i64, align 8
  %6 = alloca i64, align 8
  store %"class.std::mersenne_twister_engine"* %0, %"class.std::mersenne_twister_engine"** %3, align 8
  store i64 %1, i64* %4, align 8
  %7 = load %"class.std::mersenne_twister_engine"*, %"class.std::mersenne_twister_engine"** %3, align 8
  %8 = load i64, i64* %4, align 8
  %9 = call noundef i64 @_ZNSt8__detail5__modImLm0ELm1ELm0EEET_S1_(i64 noundef %8)
  %10 = getelementptr inbounds %"class.std::mersenne_twister_engine", %"class.std::mersenne_twister_engine"* %7, i32 0, i32 0
  %11 = getelementptr inbounds [312 x i64], [312 x i64]* %10, i64 0, i64 0
  store i64 %9, i64* %11, align 8
  store i64 1, i64* %5, align 8
  br label %12

12:                                               ; preds = %36, %2
  %13 = load i64, i64* %5, align 8
  %14 = icmp ult i64 %13, 312
  br i1 %14, label %15, label %39

15:                                               ; preds = %12
  %16 = getelementptr inbounds %"class.std::mersenne_twister_engine", %"class.std::mersenne_twister_engine"* %7, i32 0, i32 0
  %17 = load i64, i64* %5, align 8
  %18 = sub i64 %17, 1
  %19 = getelementptr inbounds [312 x i64], [312 x i64]* %16, i64 0, i64 %18
  %20 = load i64, i64* %19, align 8
  store i64 %20, i64* %6, align 8
  %21 = load i64, i64* %6, align 8
  %22 = lshr i64 %21, 62
  %23 = load i64, i64* %6, align 8
  %24 = xor i64 %23, %22
  store i64 %24, i64* %6, align 8
  %25 = load i64, i64* %6, align 8
  %26 = mul i64 %25, 6364136223846793005
  store i64 %26, i64* %6, align 8
  %27 = load i64, i64* %5, align 8
  %28 = call noundef i64 @_ZNSt8__detail5__modImLm312ELm1ELm0EEET_S1_(i64 noundef %27)
  %29 = load i64, i64* %6, align 8
  %30 = add i64 %29, %28
  store i64 %30, i64* %6, align 8
  %31 = load i64, i64* %6, align 8
  %32 = call noundef i64 @_ZNSt8__detail5__modImLm0ELm1ELm0EEET_S1_(i64 noundef %31)
  %33 = getelementptr inbounds %"class.std::mersenne_twister_engine", %"class.std::mersenne_twister_engine"* %7, i32 0, i32 0
  %34 = load i64, i64* %5, align 8
  %35 = getelementptr inbounds [312 x i64], [312 x i64]* %33, i64 0, i64 %34
  store i64 %32, i64* %35, align 8
  br label %36

36:                                               ; preds = %15
  %37 = load i64, i64* %5, align 8
  %38 = add i64 %37, 1
  store i64 %38, i64* %5, align 8
  br label %12, !llvm.loop !24

39:                                               ; preds = %12
  %40 = getelementptr inbounds %"class.std::mersenne_twister_engine", %"class.std::mersenne_twister_engine"* %7, i32 0, i32 1
  store i64 312, i64* %40, align 8
  ret void
}

; Function Attrs: mustprogress noinline optnone uwtable
define linkonce_odr dso_local noundef i64 @_ZNSt8__detail5__modImLm0ELm1ELm0EEET_S1_(i64 noundef %0) #5 comdat {
  %2 = alloca i64, align 8
  %3 = alloca i64, align 8
  store i64 %0, i64* %2, align 8
  store i64 1, i64* %3, align 8
  %4 = load i64, i64* %2, align 8
  %5 = call noundef i64 @_ZNSt8__detail4_ModImLm0ELm1ELm0ELb1ELb0EE6__calcEm(i64 noundef %4)
  ret i64 %5
}

; Function Attrs: mustprogress noinline optnone uwtable
define linkonce_odr dso_local noundef i64 @_ZNSt8__detail5__modImLm312ELm1ELm0EEET_S1_(i64 noundef %0) #5 comdat {
  %2 = alloca i64, align 8
  %3 = alloca i64, align 8
  store i64 %0, i64* %2, align 8
  store i64 1, i64* %3, align 8
  %4 = load i64, i64* %2, align 8
  %5 = call noundef i64 @_ZNSt8__detail4_ModImLm312ELm1ELm0ELb1ELb1EE6__calcEm(i64 noundef %4)
  ret i64 %5
}

; Function Attrs: mustprogress noinline nounwind optnone uwtable
define linkonce_odr dso_local noundef i64 @_ZNSt8__detail4_ModImLm312ELm1ELm0ELb1ELb1EE6__calcEm(i64 noundef %0) #7 comdat align 2 {
  %2 = alloca i64, align 8
  %3 = alloca i64, align 8
  store i64 %0, i64* %2, align 8
  %4 = load i64, i64* %2, align 8
  %5 = mul i64 1, %4
  %6 = add i64 %5, 0
  store i64 %6, i64* %3, align 8
  %7 = load i64, i64* %3, align 8
  %8 = urem i64 %7, 312
  store i64 %8, i64* %3, align 8
  %9 = load i64, i64* %3, align 8
  ret i64 %9
}

; Function Attrs: mustprogress noinline nounwind optnone uwtable
define linkonce_odr dso_local noundef i64 @_ZNSt8__detail4_ModImLm0ELm1ELm0ELb1ELb0EE6__calcEm(i64 noundef %0) #7 comdat align 2 {
  %2 = alloca i64, align 8
  %3 = alloca i64, align 8
  store i64 %0, i64* %2, align 8
  %4 = load i64, i64* %2, align 8
  %5 = mul i64 1, %4
  %6 = add i64 %5, 0
  store i64 %6, i64* %3, align 8
  %7 = load i64, i64* %3, align 8
  ret i64 %7
}

declare noundef i32 @_ZNSt13random_device9_M_getvalEv(%"class.std::random_device"* noundef nonnull align 8 dereferenceable(5000)) #1

; Function Attrs: nounwind
